///////////////////////////////////////////////////////////////////////////////
//
// IAR ANSI C/C++ Compiler V8.32.1.169/W32 for ARM        01/Feb/2019  12:38:56
// Copyright 1999-2018 IAR Systems AB.
//
//    Cpu mode     =  
//    Endian       =  little
//    Source file  =  
//        D:\Users\Brus\Documents\Uni\Wireless Sensors Networks
//        M\Project\WSNBP\my_conn_rep_test\Connectivity
//        Test\Application\Source\connectivity_test_rx.c
//    Command line =  
//        -f C:\Users\Brus\AppData\Local\Temp\EW8FB5.tmp
//        ("D:\Users\Brus\Documents\Uni\Wireless Sensors Networks
//        M\Project\WSNBP\my_conn_rep_test\Connectivity
//        Test\Application\Source\connectivity_test_rx.c" -D NDEBUG -D F24MHZ
//        -D SECURITY_ENABLED -D MC13226Included_d=0 --preprocess=cs
//        "D:\Users\Brus\Documents\Uni\Wireless Sensors Networks
//        M\Project\WSNBP\my_conn_rep_test\Connectivity Test\Release\List" -lC
//        "D:\Users\Brus\Documents\Uni\Wireless Sensors Networks
//        M\Project\WSNBP\my_conn_rep_test\Connectivity Test\Release\List" -lB
//        "D:\Users\Brus\Documents\Uni\Wireless Sensors Networks
//        M\Project\WSNBP\my_conn_rep_test\Connectivity Test\Release\List"
//        --diag_suppress Pe940,Pe951,Pe911 -o
//        "D:\Users\Brus\Documents\Uni\Wireless Sensors Networks
//        M\Project\WSNBP\my_conn_rep_test\Connectivity Test\Release\Obj"
//        --endian=little --cpu=ARM7TDMI-S --fpu=None --dlib_config
//        "C:\HDDprograms\IAR Systems\Embedded Workbench
//        8.2\arm\inc\c\DLib_Config_Normal.h" -I
//        "D:\Users\Brus\Documents\Uni\Wireless Sensors Networks
//        M\Project\WSNBP\my_conn_rep_test\Connectivity
//        Test\SMAC\Drivers\Interface\" -I
//        "D:\Users\Brus\Documents\Uni\Wireless Sensors Networks
//        M\Project\WSNBP\my_conn_rep_test\Connectivity Test\PLM\Interface\"
//        --cpu_mode thumb -Ohz --use_c++_inline)
//    Locale       =  C
//    List file    =  
//        D:\Users\Brus\Documents\Uni\Wireless Sensors Networks
//        M\Project\WSNBP\my_conn_rep_test\Connectivity
//        Test\Release\List\connectivity_test_rx.s
//
///////////////////////////////////////////////////////////////////////////////

        #define SHT_PROGBITS 0x1

        EXTERN AsciitoHex
        EXTERN DelayMs
        EXTERN DelayUs
        EXTERN Gpio_SetPinData
        EXTERN Gpio_SetPinFunction
        EXTERN ITC_EnableInterrupt
        EXTERN ITC_Init
        EXTERN ITC_SetPriority
        EXTERN IntAssignHandler
        EXTERN IntDisableFIQ
        EXTERN IntDisableIRQ
        EXTERN IntRestoreFIQ
        EXTERN IntRestoreIRQ
        EXTERN KbGpioInit
        EXTERN LCD_DrawIcon
        EXTERN LCD_SetFont
        EXTERN LCD_WriteCharacter
        EXTERN LCD_WritePixel
        EXTERN LCD_WriteStringValue
        EXTERN LCD_WriteString_NormalFont
        EXTERN LED_Init
        EXTERN LED_SetHex
        EXTERN LED_ToggleLed
        EXTERN LED_TurnOffAllLeds
        EXTERN MACA_Interrupt
        EXTERN MCPSDataRequest
        EXTERN MLMELinkQuality
        EXTERN MLMEPAOutputAdjust
        EXTERN MLMERXEnableRequest
        EXTERN MLMERadioInit
        EXTERN MLMESetChannelRequest
        EXTERN MLMETestMode
        EXTERN PlatformPortInit
        EXTERN ResetMaca
        EXTERN TmrEnable
        EXTERN TmrInit
        EXTERN TmrIsr
        EXTERN TmrSetCompStatusControl
        EXTERN TmrSetConfig
        EXTERN TmrSetMode
        EXTERN TmrSetStatusControl
        EXTERN Uart_Init
        EXTERN Uart_Poll
        EXTERN Uart_Print
        EXTERN Uart_PrintByteDec
        EXTERN Uart_PrintHex
        EXTERN Uart_PrintShortDec
        EXTERN Uart_getchar
        EXTERN __aeabi_idiv
        EXTERN __aeabi_idivmod
        EXTERN __aeabi_memcpy4
        EXTERN gRadioEvntFlags
        EXTERN mem_cmp
        EXTERN process_radio_msg

        PUBLIC ACK_msg
        PUBLIC ClearDisplay
        PUBLIC CurrentOption
        PUBLIC DisplayFreescaleLogo
        PUBLIC DisplayTestMode
        PUBLIC GpioTmrInit
        PUBLIC LEDs_Flash
        PUBLIC LEDs_LQI_indication
        PUBLIC LoadPRBS9
        PUBLIC Main
        PUBLIC ManualModeOption
        PUBLIC PrintChannel
        PUBLIC PrintTestMode
        PUBLIC RX_msg
        PUBLIC TMR_Init
        PUBLIC TX_msg
        PUBLIC adjust_LQI
        PUBLIC bulk_cap_menu
        PUBLIC c_test_num
        PUBLIC channel_adjust
        PUBLIC channel_menu
        PUBLIC clock_setting_menu
        PUBLIC coarse_tune_adjust
        PUBLIC configure_clock_settings
        PUBLIC connectivity_app_init
        PUBLIC cont_transmission_test_adjust
        PUBLIC fine_tune_adjust
        PUBLIC gbDataIndicationFlag
        PUBLIC gu32PerRxEvents
        PUBLIC gu8SCIData
        PUBLIC gu8TestAlreadyStarted
        PUBLIC gu8TestModeEvents
        PUBLIC gu8ValidAckPacket
        PUBLIC gu8ValidRangePacket
        PUBLIC init_flag
        PUBLIC ku8AckString
        PUBLIC ku8DoneStr
        PUBLIC ku8DoneStrReceiver
        PUBLIC ku8ExpectedString
        PUBLIC mUARTRxBuffer
        PUBLIC main_menu
        PUBLIC maxLQI
        PUBLIC minLQI
        PUBLIC packet_error_rate_rx_test
        PUBLIC packet_error_rate_tx_test
        PUBLIC power_adjust
        PUBLIC process_test_mode_app
        PUBLIC pulse_prbs9_tx
        PUBLIC range_rx_test
        PUBLIC range_tx_test
        PUBLIC select_test_mode_menu
        PUBLIC test_mode_rx_adjust
        PUBLIC test_mode_rx_cb
        PUBLIC test_mode_rx_menu
        PUBLIC test_mode_tx_adjust
        PUBLIC test_mode_tx_menu
        PUBLIC test_transmission_menu
        PUBLIC tx_rx_select
        PUBLIC u16TenPower
        PUBLIC u8BulkCapState
        PUBLIC u8CurrentCoarseTune
        PUBLIC u8CurrentFineTune
        PUBLIC u8CurrentMode
        PUBLIC u8LQIIcon1_c
        PUBLIC u8LQIIcon2_c
        PUBLIC u8LQIIcon3_c
        PUBLIC u8LQIIcon4_c
        PUBLIC u8LedPowerState
        PUBLIC u8RangeExpectedString
        PUBLIC u8RxIcon1_c
        PUBLIC u8RxIcon2_c
        PUBLIC u8TestModeChannel
        PUBLIC u8TestModePower
        PUBLIC waiting_loops


        SECTION `.rodata`:CONST:REORDER:NOROOT(2)
        DATA
?_0:
        DC8 "\015 ______________________________________\012"
        DATA16
        DC8 0, 0
        DC8 "\015|                                      |\012"
        DATA8
        DC8 0
        DC8 "\015|    Connectivity Test Interface    |\012"
        DC8 "\015|______________________________________|\012\012"
        DC8 "\015      4 - ADJUST CLOCK SETTINGS\012\012"
        DC8 0

        SECTION `.rodata`:CONST:REORDER:NOROOT(2)
        DATA
?_5:
        DC8 "\015\012     ___________________________________ \012"
        DC8 0, 0, 0
        DC8 "\015    |                                   |\012"
        DC8 "\015    |      Channel Adjustment Menu      |\012"
        DC8 "\015    |___________________________________|\012\012"
        DC8 0, 0, 0
        DC8 "\015\012    Please select an option:  "
        DC8 0, 0, 0

        SECTION `.rodata`:CONST:REORDER:NOROOT(2)
        DATA
?_10:
        DC8 "\015\012     __________________________\012"
        DATA8
        DC8 0
        DC8 "\015    |                          |\012"
        DC8 0
        DC8 "\015    |   Reception Tests Menu   |\012"
        DC8 0
        DC8 "\015    |__________________________|\012\012"
        DC8 "\015      P - PACKET ERROR RATE RECEIVER\012"
        DC8 0
        DC8 "\015\012\012    Please select an option:  "
        DATA16
        DC8 0, 0
        DC8 "\015\012     _____________________________\012"
        DC8 0, 0
        DC8 "\015    |                             |\012"
        DC8 0, 0
        DC8 "\015    |   Transmission Tests Menu   |\012"
        DC8 0, 0
        DC8 "\015    |_____________________________|\012\012"
        DATA8
        DC8 0
        DC8 "\015      T - CONTINUOUS TRANSMISSION\012"
        DC8 "\015      P - PACKET ERROR RATE TRANSMITTER\012"
        DATA16
        DC8 0, 0
        DC8 "\015      r - RANGE TEST TRANSMITTER\012"
        DATA8
        DC8 0
        DC8 "\015\012     ______________________________________\012"
        DC8 0
        DC8 "\015    |                                      |\012"
        DC8 0
        DC8 "\015    |  Continuous Transmission Tests Menu  |\012"
        DC8 0
        DC8 "\015    |______________________________________|\012\012"
        DC8 "\015    Current Transmission Test: "
        DC8 0, 0, 0
        DC8 0DH, 20H, 20H, 20H, 20H, 20H, 20H, 53H
        DC8 20H, 2DH, 20H, 50H, 55H, 4CH, 53H, 45H
        DC8 20H, 50H, 53H, 45H, 55H, 44H, 4FH, 20H
        DC8 52H, 41H, 4EH, 44H, 4FH, 4DH, 20H, 42H
        DC8 49H, 4EH, 41H, 52H, 59H, 20H, 53H, 45H
        DC8 51H, 55H, 45H, 4EH, 43H, 45H, 20H, 54H
        DC8 52H, 41H, 4EH, 53H, 4DH, 49H, 53H, 53H
        DC8 49H, 4FH, 4EH, 0AH, 0
        DC8 0, 0, 0
        DC8 "\015      M - MODULATED TRANSMISSION\012"
        DC8 0
        DC8 "\015      U - UNMODULATED TRANSMISSION\012"
        DC8 0, 0, 0

        SECTION `.rodata`:CONST:REORDER:NOROOT(2)
        DATA
?_31:
        DC8 "\015\012   Current Bulk Capacitor State:"
        DATA8
        DC8 0

        SECTION `.rodata`:CONST:REORDER:NOROOT(2)
        DATA
?_32:
        DC8 "\015\012     ___________________________\012"
        DC8 "\015    |                           |\012"
        DC8 "\015    |   Power Adjustment Menu   |\012"
        DC8 "\015    |___________________________|\012\012"
        DC8 0, 0, 0
        DC8 0DH, 0AH, 50H, 6CH, 65H, 61H, 73H, 65H
        DC8 20H, 65H, 6EH, 74H, 65H, 72H, 20H, 74H
        DC8 68H, 65H, 20H, 6EH, 65H, 77H, 20H, 50H
        DC8 6FH, 77H, 65H, 72H, 2CH, 20H, 30H, 78H
        DC8 30H, 30H, 20H, 66H, 6FH, 72H, 20H, 6DH
        DC8 69H, 6EH, 69H, 6DH, 75H, 6DH, 20H, 61H
        DC8 6EH, 64H, 20H, 74H, 6FH, 20H, 30H, 78H
        DC8 31H, 31H, 20H, 66H, 6FH, 72H, 20H, 6DH
        DC8 61H, 78H, 69H, 6DH, 75H, 6DH, 3AH, 20H
        DC8 0
        DC8 0, 0, 0
        DC8 0DH, 0AH, 20H, 20H, 20H, 20H, 20H, 20H
        DC8 20H, 20H, 4FH, 6EH, 20H, 6EH, 6FH, 72H
        DC8 6DH, 61H, 6CH, 20H, 6DH, 6FH, 64H, 65H
        DC8 20H, 74H, 68H, 65H, 20H, 76H, 61H, 6CH
        DC8 75H, 65H, 20H, 6DH, 75H, 73H, 74H, 20H
        DC8 62H, 65H, 20H, 62H, 65H, 74H, 77H, 65H
        DC8 65H, 6EH, 20H, 30H, 78H, 30H, 30H, 20H
        DC8 74H, 6FH, 20H, 30H, 78H, 31H, 31H, 0
        DC8 0DH, 0AH, 20H, 20H, 20H, 20H, 20H, 20H
        DC8 20H, 20H, 57H, 68H, 65H, 6EH, 20H, 50H
        DC8 41H, 20H, 4CH, 6FH, 63H, 6BH, 20H, 6DH
        DC8 6FH, 64H, 65H, 20H, 69H, 73H, 20H, 65H
        DC8 6EH, 61H, 62H, 6CH, 65H, 20H, 76H, 61H
        DC8 6CH, 69H, 64H, 20H, 76H, 61H, 6CH, 75H
        DC8 65H, 73H, 20H, 61H, 72H, 65H, 3AH, 20H
        DC8 30H, 78H, 30H, 30H, 20H, 74H, 6FH, 20H
        DC8 30H, 78H, 30H, 37H, 20H, 61H, 6EH, 64H
        DC8 20H, 30H, 78H, 30H, 43H, 0
        DATA16
        DC8 0, 0

        SECTION `.rodata`:CONST:REORDER:NOROOT(2)
        DATA
?_39:
        DC8 "\015\012Press Q to exit from Continuous Reception Mode"
        DC8 0, 0, 0

        SECTION `.rodata`:CONST:REORDER:NOROOT(2)
        DATA
?_40:
        DC8 "\015\012Press Q to exit from Transmission PRBS9 Mode"
        DATA8
        DC8 0

        SECTION `.rodata`:CONST:REORDER:NOROOT(2)
        DATA
?_41:
        DC8 "\015\012    ****************************"
        DATA8
        DC8 0
        DC8 "\015\012    ** Packet Error Rate Test **"
        DC8 0
        DC8 "\015\012Press Q to exit from Packet Error Rate Test"
        DATA16
        DC8 0, 0
        DC8 "\015\012Press Enter. Packets to transmit: "
        DC8 0, 0, 0
        DC8 "\015\012\012  Number of packets in decimal: "
        DC8 "\015\012  Value out of range, please try again."
        DC8 0, 0
        DC8 "\015\012  Invalid characters, please use only numbers."
        DC8 0, 0, 0
        DC8 "\015\012\012The RX radio is now listening..."
        DC8 "\015\012    **       Range Test       **"
        DATA8
        DC8 0
        DC8 "\015\012Press Q to exit from Range Test"
        DATA16
        DC8 0, 0
        DC8 "\015\012Start the test by pressing any key on TX radio"
        DC8 0, 0, 0
        DC8 "\015\012Press any key to start the test....."
        DATA8
        DC8 0
        DC8 "\015\012\012The transceiver is now transmitting..."
        DATA16
        DC8 0, 0

        SECTION `.rodata`:CONST:REORDER:NOROOT(2)
        DATA
?_54:
        DC8 0DH, 0AH, 50H, 6CH, 65H, 61H, 73H, 65H
        DC8 20H, 65H, 6EH, 74H, 65H, 72H, 20H, 74H
        DC8 68H, 65H, 20H, 6EH, 65H, 77H, 20H, 43H
        DC8 6FH, 61H, 72H, 73H, 65H, 20H, 54H, 75H
        DC8 6EH, 65H, 20H, 76H, 61H, 6CH, 75H, 65H
        DC8 20H, 62H, 65H, 74H, 77H, 65H, 65H, 6EH
        DC8 20H, 30H, 78H, 30H, 30H, 20H, 74H, 6FH
        DC8 20H, 30H, 78H, 30H, 46H, 20H, 69H, 6EH
        DC8 20H, 68H, 65H, 78H, 61H, 64H, 65H, 63H
        DC8 69H, 6DH, 61H, 6CH, 3AH, 20H, 20H, 0
        DC8 0DH, 0AH, 20H, 20H, 20H, 20H, 49H, 6EH
        DC8 63H, 6FH, 72H, 72H, 65H, 63H, 74H, 20H
        DC8 76H, 61H, 6CH, 75H, 65H, 21H, 21H, 21H
        DC8 20H, 20H, 54H, 68H, 65H, 20H, 76H, 61H
        DC8 6CH, 75H, 65H, 20H, 6DH, 75H, 73H, 74H
        DC8 20H, 62H, 65H, 20H, 62H, 65H, 74H, 77H
        DC8 65H, 65H, 6EH, 20H, 30H, 78H, 30H, 30H
        DC8 20H, 74H, 6FH, 20H, 30H, 78H, 30H, 46H
        DC8 0AH, 0
        DATA16
        DC8 0, 0

        SECTION `.rodata`:CONST:REORDER:NOROOT(2)
        DATA
?_56:
        DC8 0DH, 0AH, 50H, 6CH, 65H, 61H, 73H, 65H
        DC8 20H, 65H, 6EH, 74H, 65H, 72H, 20H, 74H
        DC8 68H, 65H, 20H, 6EH, 65H, 77H, 20H, 46H
        DC8 69H, 6EH, 65H, 20H, 54H, 75H, 6EH, 65H
        DC8 20H, 76H, 61H, 6CH, 75H, 65H, 20H, 62H
        DC8 65H, 74H, 77H, 65H, 65H, 6EH, 20H, 30H
        DC8 78H, 30H, 30H, 20H, 74H, 6FH, 20H, 30H
        DC8 78H, 31H, 46H, 20H, 69H, 6EH, 20H, 68H
        DC8 65H, 78H, 61H, 64H, 65H, 63H, 69H, 6DH
        DC8 61H, 6CH, 3AH, 20H, 20H, 0
        DATA16
        DC8 0, 0
        DC8 0DH, 0AH, 20H, 20H, 20H, 20H, 49H, 6EH
        DC8 63H, 6FH, 72H, 72H, 65H, 63H, 74H, 20H
        DC8 76H, 61H, 6CH, 75H, 65H, 21H, 21H, 21H
        DC8 20H, 20H, 54H, 68H, 65H, 20H, 76H, 61H
        DC8 6CH, 75H, 65H, 20H, 6DH, 75H, 73H, 74H
        DC8 20H, 62H, 65H, 20H, 62H, 65H, 74H, 77H
        DC8 65H, 65H, 6EH, 20H, 30H, 78H, 30H, 30H
        DC8 20H, 74H, 6FH, 20H, 30H, 78H, 31H, 46H
        DC8 0AH, 0
        DC8 0, 0

        SECTION `.rodata`:CONST:REORDER:NOROOT(2)
        DATA
?_58:
        DC8 "CONTINUOUS PULSE PRBS9 TRANSMISSION\012"
        DC8 0, 0, 0
        DC8 "CONTINUOUS MODULATED TRANSMISSION\012"
        DATA8
        DC8 0
        DC8 "CONTINUOUS UNMODULATED TRANSMISSION\012"
        DC8 0, 0, 0

        SECTION `.rodata`:CONST:REORDER:NOROOT(2)
        DATA
?_61:
        DC8 "\015  ###  *  #         F R E E S C A L E\012"
        DC8 "\015     ***            S E M I C O N D U C T O R\012"
        DC8 "\015  #           Press any key to continue...\012\012"
        DATA16
        DC8 0, 0

        SECTION `.rodata`:CONST:NOROOT(2)
        DATA
?_64:
        DATA8
        DC8 0, 0, 0, 0

        SECTION `.rodata`:CONST:NOROOT(2)
        DATA
?_65:
        DC8 "\015\012N:"
        DC8 0, 0, 0

        SECTION `.rodata`:CONST:NOROOT(2)
        DATA
?_66:
        DC8 " L:"

        SECTION `.rodata`:CONST:NOROOT(2)
        DATA
?_68:
        DC8 " CRC=1 Data="
        DC8 0, 0, 0

        SECTION `.rodata`:CONST:NOROOT(2)
        DATA
?_69:
        DC8 "\015\012\012Good:\t"
        DATA16
        DC8 0, 0

        SECTION `.rodata`:CONST:NOROOT(1)
        DATA
?_70:
        DC8 "/"

        SECTION `.rodata`:CONST:NOROOT(2)
        DATA
?_71:
        DC8 "\015\012\012Halt\012"
        DC8 0, 0, 0

        SECTION `.rodata`:CONST:NOROOT(2)
        DATA
?_72:
        DC8 "\015\012"
        DATA8
        DC8 0

        SECTION `.rodata`:CONST:NOROOT(2)
        DATA
?_73:
        DC8 "Received Packet:"
        DC8 0, 0, 0

        SECTION `.rodata`:CONST:NOROOT(2)
        DATA
?_74:
        DC8 "0x"
        DATA8
        DC8 0

        SECTION `.rodata`:CONST:NOROOT(1)
        DATA
?_75:
        DC8 " "

        SECTION `.rodata`:CONST:NOROOT(1)
        DATA
?_76:
        DC8 "\012"

        SECTION `.rodata`:CONST:NOROOT(2)
        DATA
?_77:
        DC8 "    LQI: -"
        DATA8
        DC8 0

        SECTION `.rodata`:CONST:NOROOT(2)
        DATA
?_79:
        DATA8
        DC8 0, 0, 0, 0

        SECTION `.rodata`:CONST:NOROOT(2)
        DATA
?_82:
        DC8 "\015      3 - SELECT TEST MODE\012"
        DC8 0, 0, 0

        SECTION `.rodata`:CONST:NOROOT(2)
        DATA
?_84:
        DC8 "\015\012\012 Please select an option:  "
        DATA8
        DC8 0

        SECTION `.rodata`:CONST:NOROOT(2)
        DATA
?_85:
        DC8 "\015    Current Channel: "
        DATA8
        DC8 0

        SECTION `.rodata`:CONST:NOROOT(2)
        DATA
?_86:
        DC8 "\015      0 - CHANNEL 11"
        DATA16
        DC8 0, 0

        SECTION `.rodata`:CONST:NOROOT(2)
        DATA
?_87:
        DC8 "      8 - CHANNEL 19\012"
        DATA16
        DC8 0, 0

        SECTION `.rodata`:CONST:NOROOT(2)
        DATA
?_88:
        DC8 "\015      1 - CHANNEL 12"
        DATA16
        DC8 0, 0

        SECTION `.rodata`:CONST:NOROOT(2)
        DATA
?_89:
        DC8 "      9 - CHANNEL 20\012"
        DATA16
        DC8 0, 0

        SECTION `.rodata`:CONST:NOROOT(2)
        DATA
?_91:
        DC8 "      A - CHANNEL 21\012"
        DATA16
        DC8 0, 0

        SECTION `.rodata`:CONST:NOROOT(2)
        DATA
?_92:
        DC8 "\015      3 - CHANNEL 14"
        DATA16
        DC8 0, 0

        SECTION `.rodata`:CONST:NOROOT(2)
        DATA
?_93:
        DC8 "      B - CHANNEL 22\012"
        DATA16
        DC8 0, 0

        SECTION `.rodata`:CONST:NOROOT(2)
        DATA
?_95:
        DC8 "      C - CHANNEL 23\012"
        DATA16
        DC8 0, 0

        SECTION `.rodata`:CONST:NOROOT(2)
        DATA
?_96:
        DC8 "\015      5 - CHANNEL 16"
        DATA16
        DC8 0, 0

        SECTION `.rodata`:CONST:NOROOT(2)
        DATA
?_97:
        DC8 "      D - CHANNEL 24\012"
        DATA16
        DC8 0, 0

        SECTION `.rodata`:CONST:NOROOT(2)
        DATA
?_99:
        DC8 "      E - CHANNEL 25\012"
        DATA16
        DC8 0, 0

        SECTION `.rodata`:CONST:NOROOT(2)
        DATA
?_100:
        DC8 "\015      7 - CHANNEL 18"
        DATA16
        DC8 0, 0

        SECTION `.rodata`:CONST:NOROOT(2)
        DATA
?_101:
        DC8 "      F - CHANNEL 26\012"
        DATA16
        DC8 0, 0

        SECTION `.rodata`:CONST:NOROOT(2)
        DATA
?_108:
        DC8 "\015      R - RECEIVER MODE \012"
        DATA8
        DC8 0

        SECTION `.rodata`:CONST:NOROOT(2)
        DATA
?_109:
        DC8 "\015      T - TRANSMITTER MODE \012"
        DATA16
        DC8 0, 0

        SECTION `.rodata`:CONST:NOROOT(2)
        DATA
?_111:
        DC8 "\015\012    |                     |"
        DATA16
        DC8 0, 0

        SECTION `.rodata`:CONST:NOROOT(2)
        DATA
?_112:
        DC8 "\015\012    | Clock Settings Menu |"
        DATA16
        DC8 0, 0

        SECTION `.rodata`:CONST:NOROOT(2)
        DATA
?_113:
        DC8 "\015\012    |_____________________|\012\012"

        SECTION `.rodata`:CONST:NOROOT(2)
        DATA
?_115:
        DC8 "\015    2 - Adjust COARSE TUNE\012"
        DC8 0, 0, 0

        SECTION `.rodata`:CONST:NOROOT(2)
        DATA
?_116:
        DC8 "\015    3 - Adjust FINE TUNE \012"

        SECTION `.rodata`:CONST:NOROOT(2)
        DATA
?_117:
        DC8 "\015    p - Previous Menu\012"

        SECTION `.rodata`:CONST:NOROOT(2)
        DATA
?_120:
        DC8 "  Disable\012\012"

        SECTION `.rodata`:CONST:NOROOT(2)
        DATA
?_122:
        DC8 "\015   D - Disable Capacitor\012"
        DATA8
        DC8 0

        SECTION `.rodata`:CONST:NOROOT(2)
        DATA
?_123:
        DC8 "\015   p - Previous Menu\012"
        DATA8
        DC8 0

        SECTION `.rodata`:CONST:NOROOT(2)
        DATA
?_124:
        DC8 "\015\012Please select an option:  "
        DC8 0, 0, 0

        SECTION `.rodata`:CONST:NOROOT(2)
        DATA
?_126:
        DC8 "\015    Current Power: "
        DC8 0, 0, 0

        SECTION `.rodata`:CONST:NOROOT(2)
        DATA
?_128:
        DC8 "\015\012Press any key to start....."
        DATA16
        DC8 0, 0

        SECTION `.rodata`:CONST:NOROOT(2)
        DATA
?_129:
        DC8 "\015\012\012Coarse Tune Adjustment\012\012\012"
        DC8 0, 0, 0

        SECTION `.rodata`:CONST:NOROOT(2)
        DATA
?_130:
        DC8 "\015  Current Coarse Tune Value: "
        DATA8
        DC8 0

        SECTION `.rodata`:CONST:NOROOT(2)
        DATA
?_131:
        DC8 "\015\012\012Fine Tune Adjustment\012\012\012"
        DATA8
        DC8 0

        SECTION `.rodata`:CONST:NOROOT(2)
        DATA
?_132:
        DC8 "\015  Current Fine Tune Value: "
        DC8 0, 0, 0

        SECTION `.rodata`:CONST:NOROOT(2)
        DATA
?_139:
        DC8 "\012\015\012\015\012\015      #\012"
        DATA8
        DC8 0

        SECTION `.rodata`:CONST:NOROOT(2)
        DATA
?_140:
        DC8 "\015     ###\012"
        DATA8
        DC8 0

        SECTION `.rodata`:CONST:NOROOT(2)
        DATA
?_141:
        DC8 "\015    ###  *\012"
        DC8 0, 0, 0

        SECTION `.rodata`:CONST:NOROOT(2)
        DATA
?_142:
        DC8 "\015     #  ***\012"
        DATA16
        DC8 0, 0

        SECTION `.rodata`:CONST:NOROOT(2)
        DATA
?_143:
        DC8 "\015       ***  #\012"

        SECTION `.rodata`:CONST:NOROOT(2)
        DATA
?_144:
        DC8 "\015        *  ###\012"
        DC8 0, 0, 0

        SECTION `.rodata`:CONST:NOROOT(2)
        DATA
?_145:
        DC8 "\015          ###\012"

        SECTION `.rodata`:CONST:NOROOT(2)
        DATA
?_146:
        DC8 "\015        *  #\012"
        DATA8
        DC8 0

        SECTION `.rodata`:CONST:NOROOT(2)
        DATA
?_147:
        DC8 "\015       ***\012"
        DC8 0, 0, 0

        SECTION `.rodata`:CONST:NOROOT(2)
        DATA
?_148:
        DC8 "\015      ***  #\012"
        DATA8
        DC8 0

        SECTION `.rodata`:CONST:NOROOT(2)
        DATA
?_149:
        DC8 "\015    #  *  ###\012"

        SECTION `.rodata`:CONST:NOROOT(2)
        DATA
?_150:
        DC8 "\015   ###   ###\012"
        DATA8
        DC8 0

        SECTION `.rodata`:CONST:NOROOT(2)
        DATA
?_151:
        DC8 "\015   #  ***\012"

        SECTION `.rodata`:CONST:NOROOT(2)
        DATA
?_154:
        DC8 "\015 ###\012"
        DATA8
        DC8 0

        SECTION `.rodata`:CONST:NOROOT(2)
        DATA
?_155:
        DATA8
        DC8 102, 114, 101, 101, 115, 99, 97, 108, 101, 0, 0, 0

        SECTION `.rodata`:CONST:NOROOT(2)
        DATA
?_156:
        DC8 "   CONNECTIVITY TEST  "
        DATA8
        DC8 0

        SECTION `.rodata`:CONST:NOROOT(2)
        DATA
?_157:
        DC8 " Option: Channel"
        DC8 0, 0, 0

        SECTION `.rodata`:CONST:NOROOT(2)
        DATA
?_158:
        DC8 "  SW1 Change option"

        SECTION `.rodata`:CONST:NOROOT(2)
        DATA
?_159:
        DC8 "  SW2 Channel Up"
        DC8 0, 0, 0

        SECTION `.rodata`:CONST:NOROOT(2)
        DATA
?_160:
        DC8 "  SW3 Channel Down"
        DATA8
        DC8 0

        SECTION `.rodata`:CONST:NOROOT(2)
        DATA
?_161:
        DC8 "CHANNEL:"
        DC8 0, 0, 0

        SECTION `.rodata`:CONST:NOROOT(2)
        DATA
?_162:
        DC8 " Option: Power"
        DATA8
        DC8 0

        SECTION `.rodata`:CONST:NOROOT(2)
        DATA
?_163:
        DC8 "  SW2 Power Up"
        DATA8
        DC8 0

        SECTION `.rodata`:CONST:NOROOT(2)
        DATA
?_164:
        DC8 "  SW3 Power Down"
        DC8 0, 0, 0

        SECTION `.rodata`:CONST:NOROOT(2)
        DATA
?_165:
        DC8 "POWER LEVEL:"
        DC8 0, 0, 0

        SECTION `.rodata`:CONST:NOROOT(2)
        DATA
?_166:
        DC8 " Option: Test"
        DATA16
        DC8 0, 0

        SECTION `.rodata`:CONST:NOROOT(2)
        DATA
?_167:
        DC8 "  SW2 Test Up"
        DATA16
        DC8 0, 0

        SECTION `.rodata`:CONST:NOROOT(2)
        DATA
?_168:
        DC8 "  SW3 Test Down"

        SECTION `.rodata`:CONST:NOROOT(2)
        DATA
?_169:
        DC8 "Idle Mode"
        DATA16
        DC8 0, 0

        SECTION `.rodata`:CONST:NOROOT(2)
        DATA
?_170:
        DC8 "PER Test running"
        DC8 0, 0, 0

        SECTION `.rodata`:CONST:NOROOT(2)
        DATA
?_171:
        DC8 "SW4 for PER TX"
        DATA8
        DC8 0

        SECTION `.rodata`:CONST:NOROOT(2)
        DATA
?_172:
        DC8 "Range Test running"
        DATA8
        DC8 0

        SECTION `.rodata`:CONST:NOROOT(2)
        DATA
?_173:
        DC8 "SW4 for Range TX"
        DC8 0, 0, 0

        SECTION `.rodata`:CONST:NOROOT(2)
        DATA
?_177:
        DC8 "                     "
        DATA16
        DC8 0, 0
// D:\Users\Brus\Documents\Uni\Wireless Sensors Networks M\Project\WSNBP\my_conn_rep_test\Connectivity Test\Application\Source\connectivity_test_rx.c
//    1 /************************************************************************************
//    2 * Connectivity Test Main 
//    3 *
//    4 * (c) Copyright 2011, Freescale, Inc.  All rights reserved.
//    5 *
//    6 * No part of this document must be reproduced in any form - including copied,
//    7 * transcribed, printed or by any electronic means - without specific written
//    8 * permission from Freescale.
//    9 *
//   10 * Last Inspected: 22/08/2011
//   11 * Last Tested:
//   12 ************************************************************************************/
//   13 
//   14 #include "../Configure/app_config.h"
//   15 #include "../../PLM/LibInterface/Crm.h"
//   16 #include "../../PLM/LibInterface/Interrupt.h"
//   17 #include "../../PLM/LibInterface/Timer.h"
//   18 #include "../../PLM/Interface/PlatformInit.h"
//   19 #include "../../PLM/Interface/RF_Config.h"
//   20 #include "../../SMAC/Interface/GlobalDefs.h"
//   21 #include "../../SMAC/Interface/TransceiverConfigMngmnt.h"
//   22 #include "../../SMAC/Interface/TransceiverPowerMngmnt.h"
//   23 #include "../../SMAC/Interface/WirelessLinkMngmt.h"
//   24 #include "../../SMAC/Interface/SecurityMngmnt.h"
//   25 #include "../../SMAC/Interface/TransceiverPowerMngmnt.h"
//   26 #include "../../SMAC/Configure/options_config.h"
//   27 #include "../../SMAC/Configure/security_config.h"
//   28 #include "../../SMAC/Drivers/Interface/MacaInterrupt.h"
//   29 #include "../../SMAC/Drivers/Interface/ghdr/maca.h"
//   30 #include "../../SMAC/Drivers/Interface/Delay.h"
//   31 #include "../../SMAC/Drivers/Configure/board_config.h"
//   32 #include "../Utilities/UartUtil.h"
//   33 #include "../Utilities/Leds.h"
//   34 #include "../Utilities/Keyboard.h"
//   35 #include "../Utilities/Display.h"
//   36 #include "../Utilities/Sound.h"
//   37 #include "../Otap/Otap.h"
//   38 
//   39 /************************************************************************************
//   40 *************************************************************************************
//   41 * Private type definitions
//   42 *************************************************************************************
//   43 ************************************************************************************/
//   44 typedef enum
//   45 {
//   46   gChannel_c= 0,
//   47   gPower_c,
//   48   gRxTestMode_c,
//   49   gTxTestMode_c,
//   50   gBulkCap_c,
//   51   gCoarseTune_c,
//   52   gFineTune_c,
//   53   MAX_OPTION
//   54 } ConfigOption_t;
//   55 
//   56 typedef enum link_quality_value_tag{
//   57   gFarRange_c = 0,
//   58   gMediumRange_c,
//   59   gNearRange_c,
//   60   gVeryNearRange_c
//   61 }link_quality_value_t;
//   62 
//   63 typedef struct four_digit_bcd_tag{
//   64   uint8_t u8Units:4;
//   65   uint8_t u8Tens:4;
//   66   uint8_t u8Houndreds:4;
//   67   uint8_t u8Thousands:4;
//   68   uint8_t u8TensThousands:4;
//   69   uint8_t u8HoundredsThousands:4;
//   70 }four_digit_bcd_t;
//   71 
//   72 typedef enum per_rx_states_tag{
//   73   IDLE_PER_RX_ST = 0,
//   74   INIT_PER_RX_ST,
//   75   WAITING_PER_RX_ST,
//   76   LISTEN_PER_RX_ST,
//   77   FINISH_PER_RX_ST  
//   78 }per_rx_states_t;
//   79 
//   80 typedef enum range_rx_states_tag{
//   81   IDLE_RANGE_RX_ST = 0,
//   82   INIT_RANGE_RX_ST,
//   83   WAITING_RANGE_RX_ST,
//   84   LISTEN_RANGE_RX_ST,
//   85   TRANSMIT_ACK_RANGE_RX_ST,
//   86   FINISH_RANGE_RX_ST  
//   87 }range_rx_states_t;
//   88 
//   89 typedef enum per_tx_states_tag{
//   90   IDLE_PER_TX_ST = 0,
//   91   INIT_PER_TX_ST,
//   92   TRANSMITING_PER_TX_ST,
//   93   DONE_PER_TX_ST,
//   94   FINISH_PER_TX_ST  
//   95 }per_tx_states_t;
//   96 
//   97 typedef enum range_tx_states_tag{
//   98   IDLE_RANGE_TX_ST = 0,
//   99   INIT_RANGE_TX_ST,
//  100   TRANSMITING_RANGE_TX_ST,
//  101   WAITING_RANGE_TX_ST,
//  102   LISTEN_RANGE_TX_ST,
//  103   RANGE_INDICATION_TX_ST
//  104 }range_tx_states_t;
//  105 
//  106 
//  107 typedef enum prbs9_tx_states_tag{
//  108   INIT_PRBS9_TX_ST = 0,
//  109   TRANSMIT_PRBS9_TX_ST
//  110 }prbs9_tx_states_t;
//  111 
//  112 
//  113 /************************************************************************************
//  114 *************************************************************************************
//  115 * Private macros
//  116 *************************************************************************************
//  117 ************************************************************************************/
//  118 #define TX_BUF_LEN               68
//  119 #define RX_BUF_LEN               68
//  120 #define RANGE_RX_BUF_LEN         10
//  121 #define RANGE_RX_BUF_LEN_SEC     33
//  122 #define PER_RX_BUF_LEN           22
//  123 #define ACK_BUF_LEN              6
//  124 #define ACK_BUF_LEN_CTR_SEC      17
//  125 #define ACK_BUF_LEN_NO_CTR_SEC   33  
//  126 
//  127 #if OTAP_ENABLED == TRUE  
//  128   #define RX_SIZE             OTAP_RX_SIZE 
//  129   #define PER_RX_SIZE         OTAP_RX_SIZE
//  130   #define RANGE_RX_SIZE       OTAP_RX_SIZE
//  131 #else
//  132   #define RX_SIZE             (smac_pdu_size(RX_BUF_LEN))
//  133   #define PER_RX_SIZE         (smac_pdu_size(PER_RX_BUF_LEN))
//  134   #define RANGE_RX_SIZE       (smac_pdu_size(RANGE_RX_BUF_LEN))
//  135 #endif
//  136 
//  137 #define TX_SIZE               (smac_pdu_size(TX_BUF_LEN))
//  138 
//  139 #if SMAC_FEATURE_SECURITY ==  TRUE
//  140 
//  141   ctr_value_t Ctr_Value = { CTR_0_INIT_VALUE, CTR_1_INIT_VALUE, \ 
//  142                             CTR_2_INIT_VALUE, CTR_3_INIT_VALUE, };
//  143   cipher_key_t CTR_Key = { KEY_0_INIT_VALUE, KEY_1_INIT_VALUE, \ 
//  144                            KEY_2_INIT_VALUE, KEY_3_INIT_VALUE, };
//  145   
//  146   #if AES_DEFAULT_VALUE != AES_CTR_MODE
//  147     #define ACK_SIZE (smac_pdu_size(ACK_BUF_LEN_NO_CTR_SEC))
//  148     #define RANGE_RX_SIZE (smac_pdu_size(RANGE_RX_BUF_LEN_SEC))
//  149   #else 
//  150     #define ACK_SIZE (smac_pdu_size(ACK_BUF_LEN_CTR_SEC)) 
//  151   #endif
//  152   
//  153 #else
//  154   #define ACK_SIZE              (smac_pdu_size(ACK_BUF_LEN))
//  155 #endif  
//  156   
//  157 #if CLK_FREQ == F24MHZ
//  158  #define DELAY_SIZE                   0x1770
//  159 #else
//  160  #define DELAY_SIZE                   0x2EE0
//  161 #endif
//  162 #define LFSR_SIZE                      64
//  163 #define FLASH_DELAY                    200
//  164 #define gTotalPacketsDelay_d           400
//  165 #define MAX_COARSE_TUNE                0x0F
//  166 #define MIN_COARSE_TUNE                0x00
//  167 #define MAX_FINE_TUNE                  0x1F
//  168 #define MIN_FINE_TUNE                  0x00
//  169 #define NO_TEST_MODE_EVENT             0x00
//  170 #define TEST_MODE_INCREASE_EVENT       0x01
//  171 #define TEST_MODE_DECREASE_EVENT       0x02
//  172 #define CHANGE_OPTION_CONFIG_EVENT     0x04
//  173 #define TEST_START_EVENT               0x08  
//  174 #define MAX_POWER_LED_VALUE            0x0F
//  175 #define NOM_POWER_LED_VALUE            0x05
//  176 #define MIN_POWER_LED_VALUE            0x01
//  177 #define MAX_RX_PACKETS                 0x28
//  178 
//  179 #define ChannelAdjustment              '1' 
//  180 #define PowerAdjustment                '2' 
//  181 #define TestAdjustment                 '3' 
//  182 #define ClockAdjustment                '4' 
//  183 #define PreviousMenu                   'p'
//  184 #define MaximumPower                   'M'
//  185 #define NominalPower                   'n'
//  186 #define MinimumPower                   'm'
//  187 #define TransmissionTest               'T' 
//  188 #define RangeTest                      'r'
//  189 #define IdleTest                       'I'
//  190 #define PRBS9TxTest                    'S'
//  191 #define ReceptionTest                  'R'
//  192 #define PacketErrorRateTest            'P'
//  193 #define ModulatedTxTest                'M'
//  194 #define UnmodulatedTxTest              'U'
//  195 #define Exit                           'Q'
//  196 #define BulkCapacitor                  '1'
//  197 #define CoarseTune                     '2'
//  198 #define FineTune                       '3'
//  199 #define EnableBulkCapacitor            'E'
//  200 #define DisableBulkCapacitor           'D'
//  201   
//  202 #define SMAC_CONTINUOUS_RX             SMAC_TEST_MODE_PULSE_PRBS9_TX
//  203 #define SMAC_TEST_MODE_PER_RX          SMAC_TEST_MODE_PER_TX_RX 
//  204 #define SMAC_TEST_MODE_RANGE_RX        SMAC_TEST_MODE_RANGE_TX_RX 
//  205   
//  206 #define SMAC_TEST_MODE_PULSE_PRBS9_TX  SMAC_TEST_MODE_PULSE_PRBS9_TX_RX
//  207 #define SMAC_TEST_MODE_PER_TX          SMAC_TEST_MODE_PER_TX_RX 
//  208 #define SMAC_TEST_MODE_RANGE_TX        SMAC_TEST_MODE_RANGE_TX_RX 
//  209 
//  210 
//  211 #define set_initial_option_values() \ 
//  212     u8CurrentMode = SMAC_TEST_MODE_PER_RX; \ 
//  213     u8TestModeChannel = CHANNEL_NUMBER; \ 
//  214     u8TestModePower = gDefaultPowerLevel_c; \ 
//  215     u8BulkCapState = (0x10 & DEFAULT_COARSE_TRIM) >> 4; \ 
//  216     u8CurrentFineTune = DEFAULT_FINE_TRIM; \ 
//  217     u8CurrentCoarseTune = (0x0F & DEFAULT_COARSE_TRIM); \ 
//  218     gbDataIndicationFlag = FALSE;\ 
//  219     gu8TestModeEvents = NO_TEST_MODE_EVENT;\ 
//  220     gu8ValidRangePacket = FALSE;\ 
//  221 	gu8ValidAckPacket = FALSE;\ 
//  222     gu8TestAlreadyStarted = FALSE
//  223   
//  224 
//  225 #define   LEDs_RX_INIT(x) \ 
//  226   do { \ 
//  227     DelayMs(x); \ 
//  228     TurnOffLeds(); \ 
//  229     DelayMs(x); \ 
//  230     TurnOnLeds(); \ 
//  231     DelayMs(x); \ 
//  232     TurnOffLeds(); \ 
//  233     DelayMs(x); \ 
//  234     TurnOnLeds(); \ 
//  235     DelayMs(x); \ 
//  236     TurnOffLeds(); \ 
//  237   }while(0);
//  238   
//  239   
//  240 #define clear_event(x,y) (x &= (~y))
//  241 
//  242 
//  243 #define is_rx_msg_final_state(x) \ 
//  244   ( (MSG_RX_ACTION_COMPLETE_SUCCESS == x.u8Status.msg_state) || \ 
//  245     (MSG_RX_ACTION_COMPLETE_FAIL == x.u8Status.msg_state)    || \ 
//  246     (MSG_RX_ABORTED == x.u8Status.msg_state)                 || \ 
//  247     (MSG_RX_TIMEOUT_FAIL == x.u8Status.msg_state) )
//  248 
//  249 #define is_tx_msg_final_state(x) \ 
//  250   ( (MSG_TX_ACTION_COMPLETE_SUCCESS == x.u8Status.msg_state) || \ 
//  251     (MSG_TX_ACTION_COMPLETE_FAIL == x.u8Status.msg_state)    || \ 
//  252     (MSG_TX_ABORTED == x.u8Status.msg_state)                 || \ 
//  253     (MSG_TX_ACTION_COMPLETE_CHANN_BUSY == x.u8Status.msg_state) )
//  254 
//  255 #define   LEDs_TX_INIT(x) \ 
//  256   do { \ 
//  257     LED_SetHex(0x08);\ 
//  258     DelayMs(x);\ 
//  259     LED_SetHex(0x04);\ 
//  260     DelayMs(x);\ 
//  261     LED_SetHex(0x02);\ 
//  262     DelayMs(x);\ 
//  263     LED_SetHex(0x01);\ 
//  264     DelayMs(x);\ 
//  265     TurnOffLeds();\ 
//  266   }while(0)
//  267 
//  268 #define set_xtal_coarse_tune(x)    (CRM_XTAL_CNTL.cTune = x)
//  269 #define set_xtal_fine_tune(x)     (CRM_XTAL_CNTL.fTune = x)
//  270 #define enable_bulk_cap()         (CRM_XTAL_CNTL.bulktune = 1)
//  271 #define disable_bulk_cap()        (CRM_XTAL_CNTL.bulktune = 0)
//  272   
//  273   
//  274 #define LQI_at_minus_88dBm   88
//  275 #define LQI_at_minus_80dBm   80
//  276 #define LQI_at_minus_60dBm   60 
//  277 #define LQI_at_minus_40dBm   40
//  278 
//  279 
//  280 #define LQI_LIM1 LQI_at_minus_88dBm
//  281 #define LQI_LIM2 LQI_at_minus_80dBm
//  282 #define LQI_LIM3 LQI_at_minus_60dBm
//  283 #define LQI_LIM4 LQI_at_minus_40dBm
//  284   
//  285 #define MAX_OPTION_CONFIG  (MAX_OPTION - 1)
//  286 
//  287 #define PER_NO_EVENT        (0x00000000)
//  288 #define PER_START_EVNT      (0x00000001)
//  289 #define PER_INC_CHANN_EVNT  (0x00000001<<1)
//  290 #define PER_GOOD_MSG_EVNT   (0x00000001<<2)
//  291 #define PER_DONE_MSG_EVNT   (0x00000001<<3)
//  292   
//  293 #define MAX_NUM_TRANSMISSION  (50000)
//  294 #define NUM_DONE_TX           (15)  
//  295 #define MAX_NO_PACKET_ALLOW 0x1000 
//  296   
//  297 #define LED_OFF             gGpioPinStateLow_c
//  298 #define LED_ON              gGpioPinStateHigh_c
//  299 #define BOUNCE_TIME         120   
//  300 #define DUTY_CICLE_TIME     1950  
//  301   
//  302 #define BLOCK_SIZE          16
//  303 #define gEnabled_c          0x01  
//  304 
//  305 #define SZ_OF_UART_RX     (10)
//  306 /************************************************************************************
//  307 *************************************************************************************
//  308 * Private prototypes
//  309 *************************************************************************************
//  310 ************************************************************************************/
//  311 void connectivity_app_init(void);
//  312 void connectivity_tx_app_init(void);
//  313 void test_mode_rx_cb(void);
//  314 void process_incoming_msg(void);
//  315 void select_config_option_isr(void);
//  316 void increase_config_option_isr(void);
//  317 void decrease_config_option_isr(void);
//  318 void start_test_isr(void);
//  319 void process_test_mode_app(void);
//  320 link_quality_value_t adjust_LQI(uint8_t u8LQI);
//  321 #if (gLEDSupported_d)
//  322 void LEDs_LQI_indication(link_quality_value_t u8LinkQuality);
//  323 #endif
//  324 void LEDs_Flash(uint8_t u8leds_state, uint32_t msec);
//  325 void LoadPRBS9(void);
//  326 char main_menu(void);
//  327 char channel_menu(void);
//  328 char select_test_mode_menu(void);
//  329 char test_mode_tx_menu(void);
//  330 char test_mode_rx_menu(void);
//  331 void tx_rx_select(void);
//  332 char clock_setting_menu(void);
//  333 char bulk_cap_menu(void);
//  334 void channel_adjust(void);
//  335 void power_adjust(void);
//  336 void test_mode_rx_adjust(void);
//  337 void test_mode_tx_adjust(void);
//  338 void configure_clock_settings(void);
//  339 void coarse_tune_adjust(void);
//  340 void fine_tune_adjust(void);
//  341 void PrintTestMode(Test_Mode_t TestModeValue);
//  342 void PrintChannel(channel_num_t u8ChannelValue);
//  343 void packet_error_rate_rx_test(void);
//  344 four_digit_bcd_t convert_2_bcd(uint16_t u16Value);
//  345 void range_rx_test(void);
//  346 void GpioTmrInit(void);
//  347 void TMR_Init(void);
//  348 void GpioTmrInit(void);
//  349 char test_transmission_menu(void);
//  350 void cont_transmission_test_adjust(void);
//  351 void packet_error_rate_tx_test(void);
//  352 void range_tx_test(void);
//  353 void pulse_prbs9_tx(void);
//  354 #if INTERFACE_TYPE == SERIAL 
//  355 static four_digit_bcd_t convert_2_bcd(uint16_t u16Value);
//  356 static void print_freescale_logo(void);
//  357 #endif  
//  358 
//  359 #if (gLCDSupported_d)
//  360 void DisplayFreescaleLogo(uint8_t xStartCoord, uint8_t yStartCoord);
//  361 void DisplayTestMode(ConfigOption_t u8ConfiOption);
//  362 void ClearDisplay(void);
//  363 #endif
//  364 /************************************************************************************
//  365 *************************************************************************************
//  366 * Private memory declarations
//  367 *************************************************************************************
//  368 ************************************************************************************/

        SECTION `.rodata`:CONST:NOROOT(2)
        DATA
//  369 const uint8_t ku8ExpectedString[] = { 0x00, 0x01, 0x02, 0x03, 0x04, 0x05, 0x06, 0x07, 
ku8ExpectedString:
        DATA8
        DC8 0, 1, 2, 3, 4, 5, 6, 7, 8, 9, 10, 11, 12, 13, 14, 15
//  370                                       0x08, 0x09, 0x0A, 0x0B, 0x0C, 0x0D, 0x0E, 0x0F };
//  371 

        SECTION `.rodata`:CONST:NOROOT(2)
        DATA
//  372 const uint8_t ku8DoneStr[] = { 'D', 'O', 'N', 'E' };
ku8DoneStr:
        DATA8
        DC8 68, 79, 78, 69

        SECTION `.rodata`:CONST:NOROOT(2)
        DATA
//  373 const uint8_t ku8DoneStrReceiver[] = {'D', 'O', 'N','R' };
ku8DoneStrReceiver:
        DATA8
        DC8 68, 79, 78, 82
//  374 
//  375 

        SECTION `.data`:DATA:REORDER:NOROOT(2)
        DATA
//  376 four_digit_bcd_t c_test_num = {0xF,0xF,0xF,1};
c_test_num:
        DATA8
        DC8 255, 31, 0, 0
//  377 

        SECTION `.rodata`:CONST:NOROOT(2)
        DATA
//  378 const uint8_t u8RangeExpectedString[]= {'S','i','m','p','l','e',' ','M','A','C'};
u8RangeExpectedString:
        DATA8
        DC8 83, 105, 109, 112, 108, 101, 32, 77, 65, 67, 0, 0
//  379 const uint8_t ku8AckString[] = {'A','C','K'};

        SECTION `.rodata`:CONST:NOROOT(2)
        DATA
//  380 const uint16_t u16TenPower[] = {1,10,100,1000,10000};
u16TenPower:
        DATA16
        DC16 1, 10, 100, 1000, 10000
        DC8 0, 0
//  381 
//  382 uint8_t u8LQIIcon4_c[]={0,0,0,0,48,176,176,176,176,176,176,176,176,176,176,176,176,
//  383                         176,48,0,0,0,0,0,0,0,0,0,0,1,13,109,109,109,109,109,109,109,
//  384                         109,109,13,1,0,0,0,0,0,0,0,0,0,0,0,0,0,0,6,10,10,254,10,10,
//  385                         6,0,0,0,0,0,0,0,0,0};																					
//  386 																					
//  387 uint8_t u8LQIIcon3_c[]={0,0,0,0,0,128,128,128,128,128,128,128,128,128,128,128,128,128,
//  388                         0,0,0,0,0,0,0,0,0,0,0,1,13,109,109,109,109,109,109,109,109,109,
//  389                         13,1,0,0,0,0,0,0,0,0,0,0,0,0,0,0,6,10,10,254,10,10,6,0,0,0,0,0,
//  390                         0,0,0,0};																					
//  391 																					
//  392 uint8_t u8LQIIcon2_c[]={0,0,0,0,0,0,0,0,0,0,0,0,0,0,0,0,0,0,0,0,0,0,0,0,0,0,0,0,0,0,12,
//  393                         108,108,108,108,108,108,108,108,108,12,0,0,0,0,0,0,0,0,0,0,0,0,
//  394                         0,0,0,6,10,10,254,10,10,6,0,0,0,0,0,0,0,0,0};																					
//  395 																					
//  396 uint8_t u8LQIIcon1_c[]={0,0,0,0,0,0,0,0,0,0,0,0,0,0,0,0,0,0,0,0,0,0,0,0,0,0,0,0,0,0,0,
//  397                         96,96,96,96,96,96,96,96,96,0,0,0,0,0,0,0,0,0,0,0,0,0,0,0,0,6,
//  398                         10,10,254,10,10,6,0,0,0,0,0,0,0,0,0};																					
//  399 																		
//  400 uint8_t u8RxIcon1_c[]={0,0,62,65,0,62,65,0,62,65,0,252,252,0,65,62,0,65,62,0,65,62,
//  401                       0,0,0,0,0,0,0,0,0,0,0,0,254,171,87,254,0,0,0,0,0,0,0,0,0,0,0,
//  402                       0,0,0,0,0,0,0,0,224,255,250,253,255,224,0,0,0,0,0,0,0,0,0};	
//  403 
//  404 uint8_t u8RxIcon2_c[]={0,0,0,0,0,0,0,0,62,65,0,252,252,0,65,62,0,0,0,0,0,0,0,0,0,0,
//  405                        0,0,0,0,0,0,0,0,254,171,87,254,0,0,0,0,0,0,0,0,0,0,0,0,0,0,0,
//  406                        0,0,0,0,224,255,250,253,255,224,0,0,0,0,0,0,0,0,0};																					
//  407 																		
//  408 
//  409 /************************************************************************************
//  410 *************************************************************************************
//  411 * Public functions
//  412 *************************************************************************************
//  413 ************************************************************************************/
//  414 extern void ResetMaca(void);
//  415 
//  416 /************************************************************************************
//  417 *************************************************************************************
//  418 * Variables declaration
//  419 *************************************************************************************
//  420 ************************************************************************************/
//  421 Test_Mode_t u8CurrentMode;
//  422 channel_num_t u8TestModeChannel;
//  423 uint8_t u8TestModePower;

        SECTION `.bss`:DATA:REORDER:NOROOT(0)
        DATA
//  424 uint8_t u8LedPowerState;
u8LedPowerState:
        DS8 1
//  425 message_t TX_msg;
//  426 message_t RX_msg;
//  427 message_t ACK_msg;
//  428 uint8_t mUARTRxBuffer[SZ_OF_UART_RX];
//  429 ConfigOption_t CurrentOption, ManualModeOption;
//  430 uint8_t u8CurrentCoarseTune;
//  431 uint8_t u8CurrentFineTune;
//  432 uint8_t u8BulkCapState;
//  433 uint16_t waiting_loops;
//  434 bool_t gbDataIndicationFlag;
//  435 uint8_t init_flag;
//  436 uint8_t gu8TestModeEvents;
//  437 uint32_t gu32PerRxEvents;
//  438 uint8_t gu8ValidRangePacket;
//  439 uint8_t gu8ValidAckPacket;
//  440 uint8_t gu8TestAlreadyStarted;
//  441 uint8_t gu8SCIData[10];  
//  442 
//  443 uint8_t maxLQI=0,minLQI=255;
//  444 
//  445 /************************************************************************************
//  446 * main function
//  447 *
//  448 * Executes the main function.
//  449 *
//  450 ************************************************************************************/

        SECTION `.text`:CODE:NOROOT(1)
        THUMB
//  451 void Main(void)
//  452 {
Main:
        PUSH     {R7,LR}
        SUB      SP,SP,#+152
//  453   
//  454   uint8_t dataTX[TX_SIZE];
//  455   uint8_t dataRX[RX_SIZE];
//  456   uint8_t dataACK[ACK_SIZE];
//  457 
//  458   MSG_INIT(TX_msg, &dataTX, NULL);
        LDR      R0,??DataTable122
        ADD      R1,SP,#+80
        STR      R1,[R0, #+4]
        MOVS     R1,#+0
        STR      R1,[R0, #+12]
//  459   MSG_INIT(RX_msg, &dataRX, test_mode_rx_cb);
        LDR      R0,??DataTable122_1
        ADD      R2,SP,#+8
        STR      R2,[R0, #+4]
        LDR      R2,??DataTable122_2
        STR      R2,[R0, #+12]
//  460   MSG_INIT(ACK_msg, &dataACK, NULL);
        LDR      R0,??DataTable122_3
        MOV      R2,SP
        STR      R2,[R0, #+4]
        STR      R1,[R0, #+12]
//  461 
//  462   connectivity_app_init();
        BL       connectivity_app_init
//  463     
//  464   for(;;)
//  465   {
//  466     process_test_mode_app();
??Main_0:
        BL       process_test_mode_app
        B        ??Main_0
//  467   }
//  468 }
//  469 
//  470 /************************************************************************************
//  471 *************************************************************************************
//  472 * Private functions
//  473 *************************************************************************************
//  474 ************************************************************************************/
//  475 /************************************************************************************
//  476 * connectivity_app_init
//  477 *
//  478 * This function initializate the application settings.
//  479 *
//  480 ************************************************************************************/

        SECTION `.text`:CODE:NOROOT(2)
        THUMB
//  481 void connectivity_app_init(void)
//  482 {
connectivity_app_init:
        PUSH     {R3-R5,LR}
//  483   set_initial_option_values();
        LDR      R4,??DataTable122_1
        MOVS     R0,#+2
        STRB     R0,[R4, #+16]
        MOVS     R0,#+0
        STRB     R0,[R4, #+17]
        MOVS     R1,#+15
        STRB     R1,[R4, #+18]
        STRB     R0,[R4, #+22]
        STRB     R1,[R4, #+21]
        MOVS     R1,#+8
        STRB     R1,[R4, #+20]
        STRB     R0,[R4, #+23]
        STR      R0,[R4, #+24]
//  484  
//  485   ITC_Init();
        BL       ITC_Init
//  486   IntAssignHandler(gMacaInt_c, (IntHandlerFunc_t)MACA_Interrupt);
        LDR      R1,??DataTable122_4
        MOVS     R0,#+7
        BL       IntAssignHandler
//  487   ITC_SetPriority(gMacaInt_c, gItcNormalPriority_c);
        MOVS     R1,#+0
        MOVS     R0,#+7
        BL       ITC_SetPriority
//  488   ITC_EnableInterrupt(gMacaInt_c);
        MOVS     R0,#+7
        BL       ITC_EnableInterrupt
//  489   
//  490 #if INTERFACE_TYPE == MANUAL  
//  491   IntAssignHandler(gCrmInt_c, (IntHandlerFunc_t)CRM_Isr);
//  492   ITC_SetPriority(gCrmInt_c, gItcNormalPriority_c);
//  493   ITC_EnableInterrupt(gCrmInt_c);
//  494 #endif
//  495   
//  496   IntAssignHandler(gTmrInt_c, (IntHandlerFunc_t)TmrIsr);
        LDR      R1,??DataTable122_5
        MOVS     R0,#+5
        BL       IntAssignHandler
//  497   ITC_SetPriority(gTmrInt_c, gItcNormalPriority_c);
        MOVS     R1,#+0
        MOVS     R0,#+5
        BL       ITC_SetPriority
//  498   ITC_EnableInterrupt(gTmrInt_c);
        MOVS     R0,#+5
        BL       ITC_EnableInterrupt
//  499   
//  500 #if INTERFACE_TYPE == MANUAL
//  501   CRM_RegisterISR(gCrmKB4WuEvent_c,select_config_option_isr);
//  502   CRM_RegisterISR(gCrmKB5WuEvent_c,increase_config_option_isr);
//  503   CRM_RegisterISR(gCrmKB6WuEvent_c,decrease_config_option_isr);
//  504   CRM_RegisterISR(gCrmKB7WuEvent_c,start_test_isr);
//  505 #endif  
//  506   
//  507   IntDisableIRQ();
        BL       IntDisableIRQ
//  508   IntDisableFIQ();
        BL       IntDisableFIQ
//  509 
//  510   ResetMaca();
        BL       ResetMaca
//  511   MLMERadioInit();
        BL       MLMERadioInit
//  512   PlatformPortInit();
        BL       PlatformPortInit
//  513   MLMESetChannelRequest(u8TestModeChannel);
        LDRB     R0,[R4, #+17]
        BL       MLMESetChannelRequest
//  514   
//  515   IntEnableIRQ();
        MOVS     R0,#+0
        BL       IntRestoreIRQ
//  516   IntEnableFIQ();
        MOVS     R0,#+0
        BL       IntRestoreFIQ
//  517  
//  518   Uart_Init(mUARTRxBuffer, SZ_OF_UART_RX);
        MOVS     R1,#+10
        MOVS     R0,R4
        ADDS     R0,R0,#+32
        BL       Uart_Init
//  519   LED_Init();
        BL       LED_Init
//  520   KbGpioInit();
        BL       KbGpioInit
//  521 
//  522 #if (gLCDSupported_d && INTERFACE_TYPE == MANUAL)
//  523   LCD_Init();
//  524 #endif
//  525 
//  526  
//  527 #if OTAP_ENABLED == TRUE 
//  528   OTAP_Init(&RX_msg);
//  529   gbOtapExecute = OTAP_ENABLED;
//  530 #endif
//  531   
//  532 #if INTERFACE_TYPE == SERIAL 
//  533   print_freescale_logo();
        LDR      R0,??DataTable122_6
        BL       Uart_Print
        LDR      R0,??DataTable122_7
        BL       Uart_Print
        LDR      R0,??DataTable122_8
        BL       Uart_Print
        LDR      R0,??DataTable122_9
        BL       Uart_Print
        LDR      R0,??DataTable122_10
        BL       Uart_Print
        LDR      R0,??DataTable122_11
        BL       Uart_Print
        LDR      R0,??DataTable122_12
        BL       Uart_Print
        LDR      R0,??DataTable122_13
        BL       Uart_Print
        LDR      R0,??DataTable122_14
        BL       Uart_Print
        LDR      R0,??DataTable122_15
        BL       Uart_Print
        LDR      R0,??DataTable122_16
        BL       Uart_Print
        LDR      R0,??DataTable122_17
        BL       Uart_Print
        LDR      R5,??DataTable122_18
        MOVS     R0,R5
        BL       Uart_Print
        LDR      R0,??DataTable122_19
        BL       Uart_Print
        MOVS     R0,R5
        ADDS     R0,R0,#+40
        BL       Uart_Print
        Nop      
        ADR.N    R0,?_152
        BL       Uart_Print
        Nop      
        ADR.N    R0,?_153
        BL       Uart_Print
        LDR      R0,??DataTable122_20
        BL       Uart_Print
        MOVS     R0,R5
        ADDS     R0,R0,#+88
        BL       Uart_Print
//  534   Uart_getchar(mUARTRxBuffer);
        MOVS     R0,R4
        ADDS     R0,R0,#+32
        BL       Uart_getchar
//  535 #endif
//  536 
//  537  #if INTERFACE_TYPE == MANUAL 
//  538 /********************* KBI Interruptions Initialization ***********************/
//  539   MLMESetWakeupSource(gExtWuKBI4En_c | gExtWuKBI5En_c | gExtWuKBI6En_c | gExtWuKBI7En_c, 0x00, 0x0F);
//  540 /******************************************************************************/
//  541 #endif
//  542 LoadPRBS9();
        BL       LoadPRBS9
//  543 
//  544 #if (gLCDSupported_d && INTERFACE_TYPE == MANUAL)
//  545   LCD_SetBacklight(gEnabled_c);
//  546   LCD_ClearDisplay();
//  547   DisplayFreescaleLogo(0x15,0x10);
//  548   DelayMs(1000);
//  549   ClearDisplay();
//  550   CurrentOption=gRxTestMode_c;
//  551   DisplayTestMode(CurrentOption);
//  552 #endif
//  553   
//  554  (void)MLMEPAOutputAdjust(u8TestModePower);
        LDRB     R0,[R4, #+18]
        BL       MLMEPAOutputAdjust
//  555   MLMETestMode(u8CurrentMode); 
        LDRB     R0,[R4, #+16]
        BL       MLMETestMode
//  556   MLMESetChannelRequest(u8TestModeChannel);
        LDRB     R0,[R4, #+17]
        BL       MLMESetChannelRequest
//  557 
//  558 #if (gLCDSupported_d == FALSE || INTERFACE_TYPE == SERIAL)
//  559     TMR_Init(); 
        BL       TMR_Init
//  560 #endif
//  561     
//  562 }
        POP      {R0,R4,R5}
        POP      {R3}
        BX       R3               ;; return

        SECTION `.text`:CODE:NOROOT(2)
        SECTION_TYPE SHT_PROGBITS, 0
        DATA
?_152:
        DC8 "\015   #  *\012"
        DATA16
        DC8 0, 0

        SECTION `.text`:CODE:NOROOT(2)
        SECTION_TYPE SHT_PROGBITS, 0
        DATA
?_153:
        DC8 "\015  ###               2 0 1 1\012"
        DATA16
        DC8 0, 0
//  563 
//  564 /************************************************************************************
//  565 * test_mode_rx_cb
//  566 *
//  567 * This function is the callback for the reception message, every time that a message 
//  568 * is received the function is executed and it turns on a flag to indicate that one
//  569 * message was received.
//  570 ************************************************************************************/

        SECTION `.text`:CODE:NOROOT(1)
        THUMB
//  571 void test_mode_rx_cb (void)
//  572 {
//  573   if(TRUE == gRadioEvntFlags.Bits.data_indication_flag)
test_mode_rx_cb:
        LDR      R0,??DataTable122_21
        LDR      R1,[R0, #+0]
        MOVS     R2,#+1
        LSRS     R3,R1,#+4
        ANDS     R3,R3,R2
        BEQ      ??test_mode_rx_cb_0
//  574   {
//  575     gRadioEvntFlags.Bits.data_indication_flag = FALSE;
        MOVS     R3,#+16
        BICS     R1,R1,R3
        STR      R1,[R0, #+0]
//  576     gbDataIndicationFlag = TRUE;
        LDR      R0,??DataTable123
        STRB     R2,[R0, #+23]
//  577   }
//  578   else
//  579   {
//  580     /* Do nothing */
//  581   }
//  582 }
??test_mode_rx_cb_0:
        BX       LR               ;; return

        SECTION `.text`:CODE:NOROOT(2)
        SECTION_TYPE SHT_PROGBITS, 0
        DATA
??DataTable122:
        DATA32
        DC32     TX_msg

        SECTION `.text`:CODE:NOROOT(2)
        SECTION_TYPE SHT_PROGBITS, 0
        DATA
??DataTable122_1:
        DATA32
        DC32     RX_msg

        SECTION `.text`:CODE:NOROOT(2)
        SECTION_TYPE SHT_PROGBITS, 0
        DATA
??DataTable122_2:
        DATA32
        DC32     test_mode_rx_cb

        SECTION `.text`:CODE:NOROOT(2)
        SECTION_TYPE SHT_PROGBITS, 0
        DATA
??DataTable122_3:
        DATA32
        DC32     ACK_msg

        SECTION `.text`:CODE:NOROOT(2)
        SECTION_TYPE SHT_PROGBITS, 0
        DATA
??DataTable122_4:
        DATA32
        DC32     MACA_Interrupt

        SECTION `.text`:CODE:NOROOT(2)
        SECTION_TYPE SHT_PROGBITS, 0
        DATA
??DataTable122_5:
        DATA32
        DC32     TmrIsr

        SECTION `.text`:CODE:NOROOT(2)
        SECTION_TYPE SHT_PROGBITS, 0
        DATA
??DataTable122_6:
        DATA32
        DC32     ?_139

        SECTION `.text`:CODE:NOROOT(2)
        SECTION_TYPE SHT_PROGBITS, 0
        DATA
??DataTable122_7:
        DATA32
        DC32     ?_140

        SECTION `.text`:CODE:NOROOT(2)
        SECTION_TYPE SHT_PROGBITS, 0
        DATA
??DataTable122_8:
        DATA32
        DC32     ?_141

        SECTION `.text`:CODE:NOROOT(2)
        SECTION_TYPE SHT_PROGBITS, 0
        DATA
??DataTable122_9:
        DATA32
        DC32     ?_142

        SECTION `.text`:CODE:NOROOT(2)
        SECTION_TYPE SHT_PROGBITS, 0
        DATA
??DataTable122_10:
        DATA32
        DC32     ?_143

        SECTION `.text`:CODE:NOROOT(2)
        SECTION_TYPE SHT_PROGBITS, 0
        DATA
??DataTable122_11:
        DATA32
        DC32     ?_144

        SECTION `.text`:CODE:NOROOT(2)
        SECTION_TYPE SHT_PROGBITS, 0
        DATA
??DataTable122_12:
        DATA32
        DC32     ?_145

        SECTION `.text`:CODE:NOROOT(2)
        SECTION_TYPE SHT_PROGBITS, 0
        DATA
??DataTable122_13:
        DATA32
        DC32     ?_146

        SECTION `.text`:CODE:NOROOT(2)
        SECTION_TYPE SHT_PROGBITS, 0
        DATA
??DataTable122_14:
        DATA32
        DC32     ?_147

        SECTION `.text`:CODE:NOROOT(2)
        SECTION_TYPE SHT_PROGBITS, 0
        DATA
??DataTable122_15:
        DATA32
        DC32     ?_148

        SECTION `.text`:CODE:NOROOT(2)
        SECTION_TYPE SHT_PROGBITS, 0
        DATA
??DataTable122_16:
        DATA32
        DC32     ?_149

        SECTION `.text`:CODE:NOROOT(2)
        SECTION_TYPE SHT_PROGBITS, 0
        DATA
??DataTable122_17:
        DATA32
        DC32     ?_150

        SECTION `.text`:CODE:NOROOT(2)
        SECTION_TYPE SHT_PROGBITS, 0
        DATA
??DataTable122_18:
        DATA32
        DC32     ?_61

        SECTION `.text`:CODE:NOROOT(2)
        SECTION_TYPE SHT_PROGBITS, 0
        DATA
??DataTable122_19:
        DATA32
        DC32     ?_151

        SECTION `.text`:CODE:NOROOT(2)
        SECTION_TYPE SHT_PROGBITS, 0
        DATA
??DataTable122_20:
        DATA32
        DC32     ?_154

        SECTION `.text`:CODE:NOROOT(2)
        SECTION_TYPE SHT_PROGBITS, 0
        DATA
??DataTable122_21:
        DATA32
        DC32     gRadioEvntFlags
//  583 
//  584 /************************************************************************************
//  585 * process_incoming_msg
//  586 *
//  587 * This function process the received messages.
//  588 *
//  589 ************************************************************************************/

        SECTION `.text`:CODE:NOROOT(2)
        THUMB
//  590 static void process_incoming_msg(void)
//  591 {
process_incoming_msg:
        PUSH     {R1-R7,LR}
//  592   
//  593 #if INTERFACE_TYPE == SERIAL        
//  594   uint8_t i;
//  595   four_digit_bcd_t tmp = {0,0,0,0,0,0};
        LDR      R0,??DataTable123_1
        LDR      R0,[R0, #+0]
        STR      R0,[SP, #+4]
//  596 #endif
//  597 #if INTERFACE_TYPE == MANUAL 
//  598   link_quality_value_t u8LQIAdjusted;
//  599 #endif  
//  600   uint8_t u8MsgLen;
//  601   uint8_t * ptrRcvMsg;
//  602   uint8_t u8Lqi;
//  603 
//  604   
//  605   uint16_t u16SeqNum;
//  606   static uint16_t u16MsgCounter = 0;
//  607   static uint16_t u16TotalMsg = 10;
//  608   
//  609 #if (INTERFACE_TYPE == MANUAL) && (gLCDSupported_d)     
//  610   static uint8_t u8State = 0;
//  611 #endif
//  612   
//  613 #if OTAP_ENABLED == TRUE  
//  614   OTAP_data_indication_execute();
//  615   if(!gbOtapExecute)
//  616 #endif
//  617     
//  618   {
//  619     if(SMAC_TEST_MODE_PER_RX == u8CurrentMode)
        LDR      R6,??DataTable123_2
        LDR      R5,??DataTable123
        LDRB     R0,[R5, #+16]
        CMP      R0,#+2
        BEQ      .+4
        B        ??process_incoming_msg_0
//  620     {
//  621       u8MsgLen = sizeof(ku8ExpectedString);
        MOVS     R7,#+16
//  622       ptrRcvMsg = (uint8_t *)&((RX_msg.pu8Buffer)->u8Data[5]);
//  623       if(TRUE == mem_cmp(ptrRcvMsg, (uint8_t *)ku8ExpectedString, u8MsgLen))
        MOVS     R2,#+16
        LDR      R1,??DataTable123_3
        LDR      R0,[R5, #+4]
        ADDS     R0,R0,#+7
        BL       mem_cmp
        CMP      R0,#+1
        BEQ      .+4
        B        ??process_incoming_msg_1
//  624       {
//  625   #if INTERFACE_TYPE == SERIAL        
//  626         uint8_t u8Lqi;
//  627   #endif
//  628         u16SeqNum = (RX_msg.pu8Buffer->u8Data[3] << 8);
//  629         u16SeqNum |= RX_msg.pu8Buffer->u8Data[4];
        LDR      R0,[R5, #+4]
        LDRB     R2,[R0, #+6]
        LDRB     R1,[R0, #+5]
        LSLS     R3,R1,#+8
        ORRS     R3,R3,R2
        MOV      R4,SP
        STRH     R3,[R4, #+2]
//  630         if(u16SeqNum < u16TotalMsg)
        MOV      R3,SP
        LDRH     R3,[R3, #+2]
        LDRH     R4,[R5, #+46]
        CMP      R3,R4
        BCS      ??process_incoming_msg_2
//  631         {
//  632           u16TotalMsg = (RX_msg.pu8Buffer->u8Data[1] << 8);
//  633           u16TotalMsg |= RX_msg.pu8Buffer->u8Data[2];    
        LDRB     R3,[R0, #+3]
        LSLS     R3,R3,#+8
        LDRB     R0,[R0, #+4]
        ORRS     R3,R3,R0
        STRH     R3,[R5, #+46]
//  634         }
//  635 		if(RX_msg.pu8Buffer->u8Data[4] != 'R' 
//  636                    || (RX_msg.pu8Buffer->u8Data[3] == 'K'))
??process_incoming_msg_2:
        CMP      R2,#+82
        BEQ      .+4
        B        ??process_incoming_msg_3
        CMP      R1,#+75
        BNE      .+4
        B        ??process_incoming_msg_3
//  637 			return;
//  638                 else{
//  639                   ACK_msg.pu8Buffer->u8Data[0] = 'A';
        MOVS     R0,#+65
        LDR      R1,[R6, #+4]
        STRB     R0,[R1, #+2]
//  640         ACK_msg.pu8Buffer->u8Data[1] = 'C';
        MOVS     R0,#+67
        LDR      R1,[R6, #+4]
        STRB     R0,[R1, #+3]
//  641         ACK_msg.pu8Buffer->u8Data[2] = 'K';
        MOVS     R0,#+75
        LDR      R1,[R6, #+4]
        STRB     R0,[R1, #+4]
//  642   
//  643   #if INTERFACE_TYPE == SERIAL
//  644         ACK_msg.pu8Buffer->u8Data[3] = 0; //lqi 
        MOVS     R0,#+0
        LDR      R1,[R6, #+4]
        STRB     R0,[R1, #+5]
//  645   #endif      
//  646   
//  647   #if INTERFACE_TYPE == MANUAL
//  648         ACK_msg.pu8Buffer->u8Data[3] = u8LQIAdjusted;
//  649   #endif      
//  650   
//  651         
//  652   #if SMAC_FEATURE_SECURITY ==  TRUE
//  653         uint8_t fill_counter;
//  654         for(fill_counter = 6; fill_counter < BLOCK_SIZE; fill_counter++)
//  655         {
//  656           ACK_msg.pu8Buffer->u8Data[fill_counter] = '\0';
//  657         }
//  658   
//  659         if(AES_DEFAULT_MODE != AES_CTR_MODE)
//  660         {
//  661           ACK_msg.u8BufSize = 2*BLOCK_SIZE;
//  662         }
//  663         else
//  664         {
//  665           ACK_msg.u8BufSize = BLOCK_SIZE;
//  666         }
//  667   
//  668         (void)CipherMsgU8 (&(ACK_msg.pu8Buffer->u8Data[0]),(ACK_msg.u8BufSize));
//  669   #else
//  670           ACK_msg.pu8Buffer->u8Data[4] = '\0';
        LDR      R1,[R6, #+4]
        STRB     R0,[R1, #+6]
//  671           ACK_msg.u8BufSize = 5;
        MOVS     R0,#+5
        STRB     R0,[R6, #+8]
//  672   #endif  
//  673           
//  674           
//  675                       MCPSDataRequest(&ACK_msg); 
        MOVS     R0,R6
        BL       MCPSDataRequest
//  676                   
//  677                 }
//  678         
//  679         u16MsgCounter++;
        LDRH     R0,[R5, #+44]
        ADDS     R0,R0,#+1
        STRH     R0,[R5, #+44]
//  680         
//  681   #if INTERFACE_TYPE == SERIAL        
//  682         Uart_Print("\r\nN:");
        LDR      R0,??DataTable123_4
        BL       Uart_Print
//  683         tmp = convert_2_bcd(u16SeqNum);
        MOV      R0,SP
        LDRH     R0,[R0, #+2]
        BL       convert_2_bcd
        STR      R0,[SP, #+4]
//  684         Uart_PrintHex((uint8_t *)(&tmp),3,0);
        MOVS     R2,#+0
        MOVS     R1,#+3
        ADD      R0,SP,#+4
        BL       Uart_PrintHex
//  685         Uart_Print(" L:");
        ADR      R0,??DataTable124  ;; " L:"
        BL       Uart_Print
//  686         tmp = convert_2_bcd(u8MsgLen);
        MOVS     R0,#+16
        BL       convert_2_bcd
        STR      R0,[SP, #+4]
//  687         Uart_PrintHex((uint8_t *)(&tmp),1,0);
        MOVS     R2,#+0
        MOVS     R1,#+1
        ADD      R0,SP,#+4
        BL       Uart_PrintHex
//  688         Uart_Print(" LQI=-");
        LDR      R0,??DataTable124_1
        BL       Uart_Print
//  689         (void)MLMELinkQuality(&u8Lqi);
        ADD      R0,SP,#+0
        ADDS     R0,R0,#+1
        BL       MLMELinkQuality
//  690         u8Lqi = (u8Lqi / 3);
        MOV      R0,SP
        LDRB     R0,[R0, #+1]
        MOVS     R1,#+3
        BL       __aeabi_idiv
        MOV      R1,SP
        STRB     R0,[R1, #+1]
//  691         if(100 >= u8Lqi)
        MOV      R0,SP
        LDRB     R0,[R0, #+1]
        CMP      R0,#+101
        BGE      ??process_incoming_msg_4
//  692         {  
//  693           u8Lqi = 100 - u8Lqi;
        MOVS     R0,#+100
        LDRB     R1,[R1, #+1]
        SUBS     R0,R0,R1
        MOV      R1,SP
        B        ??process_incoming_msg_5
//  694         }
//  695         else
//  696         {
//  697           u8Lqi = u8Lqi - 100;
??process_incoming_msg_4:
        MOV      R0,SP
        LDRB     R0,[R0, #+1]
        SUBS     R0,R0,#+100
??process_incoming_msg_5:
        STRB     R0,[R1, #+1]
//  698         }
//  699         tmp = convert_2_bcd(u8Lqi);
        MOV      R0,SP
        LDRB     R0,[R0, #+1]
        BL       convert_2_bcd
        STR      R0,[SP, #+4]
//  700         Uart_PrintHex((uint8_t *)(&tmp),1,0);
        MOVS     R2,#+0
        MOVS     R1,#+1
        ADD      R0,SP,#+4
        BL       Uart_PrintHex
//  701         Uart_Print(" CRC=1 Data=");
        LDR      R0,??DataTable124_2
        BL       Uart_Print
//  702       
//  703         for(i=5; i<21; i++)
        MOVS     R4,#+5
//  704         {
//  705           Uart_PrintHex((uint8_t *)&((RX_msg.pu8Buffer)->u8Data[i]), 1, 0);
??process_incoming_msg_6:
        MOVS     R2,#+0
        MOVS     R1,#+1
        LDR      R0,[R5, #+4]
        ADDS     R0,R0,R4
        ADDS     R0,R0,#+2
        BL       Uart_PrintHex
//  706           ((RX_msg.pu8Buffer)->u8Data[i]) = 0;
        MOVS     R0,#+0
        LDR      R1,[R5, #+4]
        ADDS     R1,R1,R4
        STRB     R0,[R1, #+2]
//  707         }
        ADDS     R4,R4,#+1
        CMP      R4,#+21
        BLT      ??process_incoming_msg_6
//  708         
//  709    #endif 
//  710        
//  711       #if INTERFACE_TYPE == MANUAL
//  712         
//  713         (void)MLMELinkQuality(&u8Lqi);
//  714         u8Lqi = (u8Lqi / 3);
//  715         if(100 >= u8Lqi)
//  716         {  
//  717           u8Lqi = 100 - u8Lqi;
//  718         }
//  719         else
//  720         {
//  721           u8Lqi = u8Lqi - 100;
//  722         }
//  723         
//  724         if(u8Lqi<minLQI) minLQI=u8Lqi;
//  725        if(u8Lqi>maxLQI) maxLQI=u8Lqi;
//  726         
//  727 #endif
//  728         
//  729                
//  730         
//  731         
//  732 //  #if INTERFACE_TYPE == MANUAL        
//  733         LED_ToggleLed(LED1);
        MOVS     R0,#+1
        BL       LED_ToggleLed
//  734 //  #endif      
//  735       }
//  736       
//  737       ptrRcvMsg = (uint8_t *)&((RX_msg.pu8Buffer)->u8Data[1]);
//  738       if( (TRUE == mem_cmp(ptrRcvMsg, (uint8_t *)ku8DoneStrReceiver, 4)) &&
//  739         (0 != u16MsgCounter))
??process_incoming_msg_1:
        MOVS     R2,#+4
        LDR      R1,??DataTable124_3
        LDR      R0,[R5, #+4]
        ADDS     R0,R0,#+3
        BL       mem_cmp
        CMP      R0,#+1
        BNE      ??process_incoming_msg_0
        LDRH     R0,[R5, #+44]
        CMP      R0,#+0
        BEQ      ??process_incoming_msg_0
//  740       {
//  741 
//  742   #if INTERFACE_TYPE == SERIAL 
//  743         tmp = convert_2_bcd(u16MsgCounter);
        BL       convert_2_bcd
        STR      R0,[SP, #+4]
//  744         Uart_Print("\r\n\nGood:	");
        LDR      R0,??DataTable124_4
        BL       Uart_Print
//  745         Uart_PrintHex((uint8_t *)(&tmp),3,0);
        MOVS     R2,#+0
        MOVS     R1,#+3
        ADD      R0,SP,#+4
        BL       Uart_PrintHex
//  746         Uart_Print("/");
        ADR      R0,??DataTable125  ;; "/"
        BL       Uart_Print
//  747 
//  748         tmp = convert_2_bcd(u16TotalMsg);
        LDRH     R0,[R5, #+46]
        BL       convert_2_bcd
        STR      R0,[SP, #+4]
//  749         Uart_PrintHex((uint8_t *)(&tmp),3,0);
        MOVS     R2,#+0
        MOVS     R1,#+3
        ADD      R0,SP,#+4
        BL       Uart_PrintHex
//  750         Uart_Print("\r\n\nHalt\n");
        LDR      R0,??DataTable125_1
        BL       Uart_Print
//  751   #endif 
//  752 
//  753   #if INTERFACE_TYPE == MANUAL
//  754         u16MsgCounter--;
//  755         c_test_num = convert_2_bcd(u16MsgCounter);
//  756         
//  757 #if (gLCDSupported_d)      
//  758 
//  759         LCD_WriteString_NormalFont(4,"                     ");
//  760         LCD_WriteStringValue("             /",(u16TotalMsg),4,gLCD_DecFormat_c);
//  761 
//  762         if(100 > u16MsgCounter)
//  763         {
//  764           LCD_WriteStringValue("    Good:  ",(u16MsgCounter),4,gLCD_DecFormat_c);
//  765         }
//  766         else if(1000 > u16MsgCounter)
//  767         {
//  768           LCD_WriteStringValue("    Good: ",(u16MsgCounter),4,gLCD_DecFormat_c);
//  769         }
//  770         else
//  771         {
//  772           LCD_WriteStringValue("    Good:",(u16MsgCounter),4,gLCD_DecFormat_c);
//  773         }  
//  774 
//  775         
//  776         LCD_WriteStringValue("Max LQI:",(maxLQI),5,gLCD_DecFormat_c);
//  777         LCD_WriteStringValue("Min LQI:",(minLQI),6,gLCD_DecFormat_c);
//  778          DelayMs(1500);
//  779           maxLQI=0;
//  780           minLQI=255;
//  781          
//  782           
//  783         LCD_WriteString_NormalFont(7," SW4 Start Listening ");
//  784   #endif         
//  785 
//  786   #endif      
//  787         u16MsgCounter = 0;
        MOVS     R0,#+0
        STRH     R0,[R5, #+44]
//  788         gu32PerRxEvents |= PER_DONE_MSG_EVNT;
        LDR      R0,[R5, #+56]
        MOVS     R1,#+8
        ORRS     R1,R1,R0
        STR      R1,[R5, #+56]
//  789       }
//  790     }
//  791   
//  792     if(SMAC_CONTINUOUS_RX == u8CurrentMode)
??process_incoming_msg_0:
        LDRB     R0,[R5, #+16]
        CMP      R0,#+1
        BNE      ??process_incoming_msg_7
//  793     { 
//  794       u8MsgLen = RX_msg.u8BufSize;
        LDRB     R7,[R5, #+8]
//  795   #if INTERFACE_TYPE == SERIAL
//  796       LED_ToggleLed(LED1);
        BL       LED_ToggleLed
//  797       Uart_Print("\r\n");
        ADR      R0,??DataTable125_2  ;; 0x0D, 0x0A, 0x00, 0x00
        BL       Uart_Print
//  798       Uart_Print("Received Packet:");
        LDR      R0,??DataTable125_3
        BL       Uart_Print
//  799       for(i=1; i < u8MsgLen ; i++)
        MOVS     R4,#+1
        ADR      R0,??DataTable125_4  ;; 0x30, 0x78, 0x00, 0x00
        STR      R0,[SP, #+8]
        B        ??process_incoming_msg_8
//  800       {
//  801         Uart_Print("0x");
??process_incoming_msg_9:
        LDR      R0,[SP, #+8]
        BL       Uart_Print
//  802         Uart_PrintHex((uint8_t *)&((RX_msg.pu8Buffer)->u8Data[i]), 1, 0);
        MOVS     R2,#+0
        MOVS     R1,#+1
        LDR      R0,[R5, #+4]
        ADDS     R0,R0,R4
        ADDS     R0,R0,#+2
        BL       Uart_PrintHex
//  803         (RX_msg.pu8Buffer)->u8Data[i] = 0;
        MOVS     R0,#+0
        LDR      R1,[R5, #+4]
        ADDS     R1,R1,R4
        STRB     R0,[R1, #+2]
//  804         Uart_Print(" ");
        ADR      R0,??DataTable125_5  ;; " "
        BL       Uart_Print
//  805       }
        ADDS     R4,R4,#+1
??process_incoming_msg_8:
        CMP      R4,R7
        BLT      ??process_incoming_msg_9
//  806       Uart_Print("\n");
        ADR      R0,??DataTable125_6  ;; "\n"
        BL       Uart_Print
//  807   #endif 
//  808 
//  809 #if INTERFACE_TYPE == MANUAL && gLCDSupported_d
//  810       if(2 > u8State)
//  811       {
//  812         u8State++;
//  813         LCD_DrawIcon(50,4,u8RxIcon1_c);
//  814       }
//  815       else if(4 > u8State)
//  816       {
//  817         u8State++;     
//  818         LCD_DrawIcon(50,4,u8RxIcon2_c);
//  819       }
//  820       else
//  821       {
//  822         u8State = 0;
//  823       }
//  824 #endif
//  825         LED_ToggleLed(LED1); 
        MOVS     R0,#+1
        BL       LED_ToggleLed
//  826     }  
//  827     
//  828     if( SMAC_TEST_MODE_RANGE_RX == u8CurrentMode)
??process_incoming_msg_7:
        LDRB     R0,[R5, #+16]
        CMP      R0,#+3
        BNE      ??process_incoming_msg_10
//  829     {
//  830       ptrRcvMsg = (uint8_t *)&((RX_msg.pu8Buffer)->u8Data[1]);
//  831       u8MsgLen = sizeof(u8RangeExpectedString);
        MOVS     R7,#+10
//  832   
//  833   #if SMAC_FEATURE_SECURITY ==  TRUE
//  834       {
//  835         (void)DecipherMsgU8(&(RX_msg.pu8Buffer->u8Data[1]), 
//  836                             (RX_msg.u8BufSize));
//  837       }
//  838   #endif
//  839   
//  840       if(TRUE == mem_cmp(ptrRcvMsg, (uint8_t *)u8RangeExpectedString, u8MsgLen))
        MOVS     R2,#+10
        LDR      R1,??DataTable125_7
        LDR      R0,[R5, #+4]
        ADDS     R0,R0,#+3
        BL       mem_cmp
        CMP      R0,#+1
        BNE      ??process_incoming_msg_10
//  841       {  
//  842         u8Lqi = 0;
        MOVS     R4,#+0
        MOV      R1,SP
        STRB     R4,[R1, #+0]
//  843         gu8ValidRangePacket = TRUE;
        STRB     R0,[R5, #+25]
//  844         (void)MLMELinkQuality(&u8Lqi);
        MOV      R0,SP
        BL       MLMELinkQuality
//  845         u8Lqi = (u8Lqi / 3);
        MOV      R0,SP
        LDRB     R0,[R0, #+0]
        MOVS     R1,#+3
        BL       __aeabi_idiv
        MOV      R1,SP
        STRB     R0,[R1, #+0]
//  846         if(100 >= u8Lqi)
        MOV      R0,SP
        LDRB     R0,[R0, #+0]
        CMP      R0,#+101
        BGE      ??process_incoming_msg_11
//  847         {  
//  848           u8Lqi = 100 - u8Lqi;
        MOVS     R0,#+100
        LDRB     R1,[R1, #+0]
        SUBS     R0,R0,R1
        MOV      R1,SP
        B        ??process_incoming_msg_12
//  849         }
//  850         else
//  851         {
//  852           u8Lqi = u8Lqi - 100;
??process_incoming_msg_11:
        MOV      R0,SP
        LDRB     R0,[R0, #+0]
        SUBS     R0,R0,#+100
??process_incoming_msg_12:
        STRB     R0,[R1, #+0]
//  853         }
//  854    
//  855   #if INTERFACE_TYPE == MANUAL      
//  856         u8LQIAdjusted = adjust_LQI(u8Lqi);
//  857   #endif      
//  858 #if (gLCDSupported_d)
//  859         LCD_WriteStringValue("    LQI: -",(u8Lqi),5,gLCD_DecFormat_c);
        MOVS     R3,#+1
        MOVS     R2,#+5
        MOV      R0,SP
        LDRB     R1,[R0, #+0]
        LDR      R0,??DataTable126
        BL       LCD_WriteStringValue
//  860           if(u8Lqi <= LQI_LIM4)
        MOV      R0,SP
        LDRB     R0,[R0, #+0]
        CMP      R0,#+41
        BGE      ??process_incoming_msg_13
//  861         {
//  862           LCD_DrawIcon(80,3,u8LQIIcon4_c);
        MOVS     R2,R5
        ADDS     R2,R2,#+60
        B        ??process_incoming_msg_14
//  863         }
//  864         else if(u8Lqi <= LQI_LIM3)
??process_incoming_msg_13:
        CMP      R0,#+60
        BGT      ??process_incoming_msg_15
//  865         {
//  866           LCD_DrawIcon(80,3,u8LQIIcon3_c);
        MOVS     R2,R5
        ADDS     R2,R2,#+132
        B        ??process_incoming_msg_14
//  867         }
//  868         else if (u8Lqi <= LQI_LIM2)
??process_incoming_msg_15:
        CMP      R0,#+81
        BGE      ??process_incoming_msg_16
//  869         {
//  870           LCD_DrawIcon(80,3,u8LQIIcon2_c);
        MOVS     R2,R5
        ADDS     R2,R2,#+204
        B        ??process_incoming_msg_14
//  871         }
//  872         else
//  873         {
//  874           LCD_DrawIcon(80,3,u8LQIIcon1_c);
??process_incoming_msg_16:
        MOVS     R0,#+138
        LSLS     R0,R0,#+1        ;; #+276
        ADDS     R2,R5,R0
??process_incoming_msg_14:
        MOVS     R1,#+3
        MOVS     R0,#+80
        BL       LCD_DrawIcon
//  875         }
//  876      
//  877 #endif
//  878         ACK_msg.pu8Buffer->u8Data[0] = 'A';
        MOVS     R0,#+65
        LDR      R1,[R6, #+4]
        STRB     R0,[R1, #+2]
//  879         ACK_msg.pu8Buffer->u8Data[1] = 'C';
        MOVS     R0,#+67
        LDR      R1,[R6, #+4]
        STRB     R0,[R1, #+3]
//  880         ACK_msg.pu8Buffer->u8Data[2] = 'K';
        MOVS     R0,#+75
        LDR      R1,[R6, #+4]
        STRB     R0,[R1, #+4]
//  881   
//  882   #if INTERFACE_TYPE == SERIAL
//  883         ACK_msg.pu8Buffer->u8Data[3] = u8Lqi; 
        MOV      R0,SP
        LDRB     R0,[R0, #+0]
        LDR      R1,[R6, #+4]
        STRB     R0,[R1, #+5]
//  884   #endif      
//  885   
//  886   #if INTERFACE_TYPE == MANUAL
//  887         ACK_msg.pu8Buffer->u8Data[3] = u8LQIAdjusted;
//  888   #endif      
//  889   
//  890         
//  891   #if SMAC_FEATURE_SECURITY ==  TRUE
//  892         uint8_t fill_counter;
//  893         for(fill_counter = 6; fill_counter < BLOCK_SIZE; fill_counter++)
//  894         {
//  895           ACK_msg.pu8Buffer->u8Data[fill_counter] = '\0';
//  896         }
//  897   
//  898         if(AES_DEFAULT_MODE != AES_CTR_MODE)
//  899         {
//  900           ACK_msg.u8BufSize = 2*BLOCK_SIZE;
//  901         }
//  902         else
//  903         {
//  904           ACK_msg.u8BufSize = BLOCK_SIZE;
//  905         }
//  906   
//  907         (void)CipherMsgU8 (&(ACK_msg.pu8Buffer->u8Data[0]),(ACK_msg.u8BufSize));
//  908   #else
//  909           ACK_msg.pu8Buffer->u8Data[4] = '\0';
        LDR      R0,[R6, #+4]
        STRB     R4,[R0, #+6]
//  910           ACK_msg.u8BufSize = 5;
        MOVS     R0,#+5
        STRB     R0,[R6, #+8]
//  911   #endif  
//  912         
//  913               
//  914   #if INTERFACE_TYPE == SERIAL
//  915         Uart_Print("\r\n"); 
        ADR      R0,??DataTable125_2  ;; 0x0D, 0x0A, 0x00, 0x00
        BL       Uart_Print
//  916         Uart_Print(" LQI=-");
        LDR      R0,??DataTable124_1
        BL       Uart_Print
//  917         tmp = convert_2_bcd(u8Lqi);
        MOV      R0,SP
        LDRB     R0,[R0, #+0]
        BL       convert_2_bcd
        STR      R0,[SP, #+4]
//  918         Uart_PrintHex((uint8_t *)(&tmp),1,0); 
        MOVS     R2,#+0
        MOVS     R1,#+1
        ADD      R0,SP,#+4
        BL       Uart_PrintHex
//  919   #else
//  920     DelayMs(2);      
//  921   #endif  
//  922   
//  923       
//  924        LED_ToggleLed(LED1);
        MOVS     R0,#+1
        BL       LED_ToggleLed
//  925   #if (INTERFACE_TYPE == MANUAL && gLEDSupported_d)
//  926         LEDs_LQI_indication( u8LQIAdjusted); 
//  927   #endif 
//  928       }
//  929     } 
//  930    
//  931 if(SMAC_TEST_MODE_RANGE_TX == u8CurrentMode)
??process_incoming_msg_10:
        LDRB     R0,[R5, #+16]
        CMP      R0,#+3
        BNE      ??process_incoming_msg_17
//  932     u8MsgLen = 3;
        MOVS     R7,#+3
//  933     ptrRcvMsg = (uint8_t *)&((RX_msg.pu8Buffer)->u8Data[1]);  
//  934     {
//  935       
//  936   #if SMAC_FEATURE_SECURITY ==  TRUE
//  937     (void)DecipherMsgU8 (&(RX_msg.pu8Buffer->u8Data[0]),(RX_msg.u8BufSize));    
//  938   #endif
//  939     
//  940       if(TRUE == mem_cmp(ptrRcvMsg, (uint8_t *)ku8AckString, u8MsgLen))
??process_incoming_msg_17:
        LSLS     R2,R7,#+24
        LSRS     R2,R2,#+24
        Nop      
        ADR.N    R1,ku8AckString
        LDR      R0,[R5, #+4]
        ADDS     R0,R0,#+3
        BL       mem_cmp
        CMP      R0,#+1
        BNE      ??process_incoming_msg_3
//  941       {
//  942   #if (gLEDSupported_d  || INTERFACE_TYPE == SERIAL)   
//  943         uint8_t u8Lqi;
//  944         u8Lqi = RX_msg.pu8Buffer->u8Data[4];
        LDR      R0,[R5, #+4]
        LDRB     R4,[R0, #+6]
//  945   #endif
//  946         
//  947         
//  948   #if INTERFACE_TYPE == SERIAL
//  949 
//  950         Uart_Print("\r\n");   
        ADR      R0,??DataTable125_2  ;; 0x0D, 0x0A, 0x00, 0x00
        BL       Uart_Print
//  951         Uart_Print(" LQI=-");
        ADR.N    R0,?_67
        BL       Uart_Print
//  952         tmp = convert_2_bcd(u8Lqi);
        MOVS     R0,R4
        BL       convert_2_bcd
        STR      R0,[SP, #+4]
//  953         Uart_PrintHex((uint8_t *)(&tmp),1,0);
        MOVS     R2,#+0
        MOVS     R1,#+1
        ADD      R0,SP,#+4
        BL       Uart_PrintHex
//  954   #endif 
//  955         
//  956   #if (INTERFACE_TYPE == MANUAL && gLEDSupported_d)
//  957        Led1Toggle(); 
//  958        LEDs_LQI_indication((link_quality_value_t)u8Lqi); 
//  959 
//  960   #endif      
//  961         gu8ValidAckPacket = TRUE;
        MOVS     R0,#+1
        STRB     R0,[R5, #+26]
//  962       }
//  963     }     
//  964        
//  965   }
//  966 }
??process_incoming_msg_3:
        POP      {R0-R2,R4-R7}
        POP      {R3}
        BX       R3               ;; return

        SECTION `.text`:CODE:NOROOT(2)
        SECTION_TYPE SHT_PROGBITS, 0
        DATA
??DataTable123:
        DATA32
        DC32     RX_msg

        SECTION `.text`:CODE:NOROOT(2)
        SECTION_TYPE SHT_PROGBITS, 0
        DATA
??DataTable123_1:
        DATA32
        DC32     ?_64

        SECTION `.text`:CODE:NOROOT(2)
        SECTION_TYPE SHT_PROGBITS, 0
        DATA
??DataTable123_2:
        DATA32
        DC32     ACK_msg

        SECTION `.text`:CODE:NOROOT(2)
        SECTION_TYPE SHT_PROGBITS, 0
        DATA
??DataTable123_3:
        DATA32
        DC32     ku8ExpectedString

        SECTION `.text`:CODE:NOROOT(2)
        SECTION_TYPE SHT_PROGBITS, 0
        DATA
??DataTable123_4:
        DATA32
        DC32     ?_65

        SECTION `.text`:CODE:NOROOT(2)
        SECTION_TYPE SHT_PROGBITS, 0
        DATA
ku8AckString:
        DATA8
        DC8 65, 67, 75, 0

        SECTION `.text`:CODE:NOROOT(2)
        SECTION_TYPE SHT_PROGBITS, 0
        DATA
?_67:
        DC8 " LQI=-"
        DATA8
        DC8 0
//  967 
//  968 #if INTERFACE_TYPE == MANUAL 
//  969 
//  970 /************************************************************************************
//  971 * select_config_option_isr
//  972 *
//  973 * This function is the callback function for the KBI4 interruption, it enables only 
//  974 * a flag to indicate that the KBI interruption occurred and the current option
//  975 * to configure must increase.
//  976 *
//  977 ************************************************************************************/
//  978   void select_config_option_isr(void)
//  979   {
//  980     DelayMs(BOUNCE_TIME);
//  981     gu8TestModeEvents |= CHANGE_OPTION_CONFIG_EVENT;
//  982   }
//  983 
//  984 /************************************************************************************
//  985 * increase_config_option_isr
//  986 *
//  987 * This function turns on a flag to indicate that the KBI5 interruption occurred, 
//  988 * which is used to increase the current option value.
//  989 *
//  990 ***********************************************************************************/
//  991 
//  992  void increase_config_option_isr(void)
//  993   {
//  994     DelayMs(BOUNCE_TIME);
//  995     gu8TestModeEvents |= TEST_MODE_INCREASE_EVENT;
//  996     gu8TestAlreadyStarted = FALSE;
//  997   }
//  998 
//  999 /************************************************************************************
// 1000 * decrease_config_option_isr
// 1001 *
// 1002 * This function turns on a flag to indicate that the KBI6 interruption occurred, 
// 1003 * which is used to decrease the current option value.
// 1004 *
// 1005 ***********************************************************************************/
// 1006 
// 1007   void decrease_config_option_isr(void)
// 1008   {
// 1009     DelayMs(BOUNCE_TIME);
// 1010     gu8TestModeEvents |= TEST_MODE_DECREASE_EVENT;
// 1011     gu8TestAlreadyStarted = FALSE;    
// 1012   }
// 1013 
// 1014 /************************************************************************************
// 1015 * decrease_config_option_isr
// 1016 *
// 1017 * This function turns on a flag to indicate that the KBI6 interruption occurred, 
// 1018 * which is used to decrease the current option value.
// 1019 *
// 1020 ***********************************************************************************/
// 1021 
// 1022 void start_test_isr(void)
// 1023 {
// 1024   DelayMs(BOUNCE_TIME);
// 1025   gu8TestModeEvents |= TEST_START_EVENT;
// 1026   gu8TestAlreadyStarted = FALSE;
// 1027 }
// 1028 
// 1029 #endif
// 1030 
// 1031 /************************************************************************************
// 1032 * process_test_mode_app
// 1033 *
// 1034 * This function process the test mode application, execute the serial or the manual
// 1035 * interface code according with the selected interface type in the app_config.h file.
// 1036 *
// 1037 ************************************************************************************/
// 1038 

        SECTION `.text`:CODE:NOROOT(1)
        THUMB
// 1039 void process_test_mode_app(void){
process_test_mode_app:
        PUSH     {R7,LR}
// 1040   
// 1041 #if INTERFACE_TYPE == MANUAL
// 1042   FuncReturn_t tmpChange;
// 1043   uint8_t u8SafeTimeOut;
// 1044 #endif
// 1045 
// 1046   if (CHANGE_OPTION_CONFIG_EVENT & gu8TestModeEvents)
        LDR      R0,??DataTable127
        LDRB     R1,[R0, #+24]
        LSLS     R2,R1,#+29
        BPL      ??process_test_mode_app_0
// 1047   {
// 1048    clear_event(gu8TestModeEvents,CHANGE_OPTION_CONFIG_EVENT);
        MOVS     R2,#+251
        ANDS     R2,R2,R1
        STRB     R2,[R0, #+24]
// 1049    
// 1050 #if (gLCDSupported_d)
// 1051    if(gRxTestMode_c <= CurrentOption)
        LDRB     R1,[R0, #+19]
        CMP      R1,#+2
        BLT      ??process_test_mode_app_1
// 1052     {
// 1053       CurrentOption = gChannel_c;
        MOVS     R1,#+0
        B        ??process_test_mode_app_2
// 1054     }
// 1055     else
// 1056     {
// 1057       CurrentOption++;
??process_test_mode_app_1:
        ADDS     R1,R1,#+1
??process_test_mode_app_2:
        STRB     R1,[R0, #+19]
// 1058     }
// 1059 #else
// 1060     if(MAX_OPTION_CONFIG <= CurrentOption)
// 1061     {
// 1062       CurrentOption = gChannel_c;
// 1063     }
// 1064     else
// 1065     {
// 1066       CurrentOption++;
// 1067     }
// 1068 #endif
// 1069    
// 1070 #if (gLCDSupported_d)   
// 1071    DisplayTestMode(CurrentOption);
        LDRB     R0,[R0, #+19]
        BL       DisplayTestMode
// 1072 #endif
// 1073   }
// 1074 
// 1075   #if INTERFACE_TYPE == SERIAL
// 1076   
// 1077     switch(main_menu())
??process_test_mode_app_0:
        BL       main_menu
        CMP      R0,#+49
        BEQ      ??process_test_mode_app_3
        CMP      R0,#+50
        BEQ      ??process_test_mode_app_4
        CMP      R0,#+51
        BEQ      ??process_test_mode_app_5
        CMP      R0,#+52
        BEQ      ??process_test_mode_app_6
        CMP      R0,#+112
        BEQ      ??process_test_mode_app_7
        B        ??process_test_mode_app_8
// 1078     {
// 1079 
// 1080        case ChannelAdjustment:
// 1081           channel_adjust();
??process_test_mode_app_3:
        BL       channel_adjust
// 1082           break;
        B        ??process_test_mode_app_7
// 1083         case PowerAdjustment:
// 1084           power_adjust();
??process_test_mode_app_4:
        BL       power_adjust
// 1085           break;
        B        ??process_test_mode_app_7
// 1086         case TestAdjustment:
// 1087           tx_rx_select();
??process_test_mode_app_5:
        BL       tx_rx_select
// 1088           break;
        B        ??process_test_mode_app_7
// 1089         case ClockAdjustment:  
// 1090           configure_clock_settings();
??process_test_mode_app_6:
        BL       configure_clock_settings
// 1091           break;
        B        ??process_test_mode_app_7
// 1092         case PreviousMenu:
// 1093           break;
// 1094         default:
// 1095           Uart_Print("  Invalid Option!!!\n");
??process_test_mode_app_8:
        LDR      R0,??DataTable128
        BL       Uart_Print
// 1096           break;
// 1097       }
// 1098   #else 
// 1099       
// 1100   #if INTERFACE_TYPE == MANUAL
// 1101       LED_SetHex(CurrentOption);
// 1102       switch(CurrentOption)
// 1103       {
// 1104         case gChannel_c:
// 1105           if ((TEST_MODE_INCREASE_EVENT | TEST_MODE_DECREASE_EVENT) & gu8TestModeEvents)
// 1106           {
// 1107             MLMETestMode(SMAC_TEST_MODE_IDLE);
// 1108             DelayUs(10);
// 1109             tmpChange = gFail_c;
// 1110             u8SafeTimeOut = 0xff;
// 1111             if (TEST_MODE_INCREASE_EVENT & gu8TestModeEvents)
// 1112             {
// 1113               clear_event(gu8TestModeEvents,TEST_MODE_INCREASE_EVENT);
// 1114               do{
// 1115                 if(MAX_CHAN_NUM <= u8TestModeChannel)
// 1116                 {
// 1117                   u8TestModeChannel = CHANNEL11;
// 1118                 }
// 1119                 else
// 1120                 {
// 1121                   u8TestModeChannel ++;
// 1122                 }
// 1123                 u8SafeTimeOut++;
// 1124                 tmpChange = MLMESetChannelRequest(u8TestModeChannel);
// 1125               }while((gSuccess_c != tmpChange) && (gNumChannNotOnPALock_c >= u8SafeTimeOut));
// 1126              
// 1127             }
// 1128             else
// 1129             {
// 1130               clear_event(gu8TestModeEvents,TEST_MODE_DECREASE_EVENT);
// 1131               do{
// 1132                 if(CHANNEL11 == u8TestModeChannel)
// 1133                 {
// 1134                   u8TestModeChannel = (channel_num_t)MAX_CHAN_NUM;
// 1135                 }
// 1136                 else
// 1137                 {
// 1138                   u8TestModeChannel --;
// 1139                 }
// 1140                 u8SafeTimeOut++;
// 1141                 tmpChange = MLMESetChannelRequest(u8TestModeChannel);
// 1142               }while((gSuccess_c != tmpChange) && (gNumChannNotOnPALock_c >= u8SafeTimeOut));
// 1143             }
// 1144 
// 1145             MLMETestMode(u8CurrentMode);
// 1146 #if (gLCDSupported_d)           
// 1147             LCD_WriteStringValue("CHANNEL:",(u8TestModeChannel + 11),7,gLCD_DecFormat_c);
// 1148 #endif
// 1149             LEDs_Flash(u8TestModeChannel, FLASH_DELAY);
// 1150  
// 1151           }
// 1152 
// 1153           break;
// 1154        
// 1155         case  gPower_c:
// 1156           if ((TEST_MODE_INCREASE_EVENT | TEST_MODE_DECREASE_EVENT) & gu8TestModeEvents)
// 1157           {
// 1158             tmpChange = gFail_c;
// 1159             u8SafeTimeOut = 0xff;
// 1160             if (TEST_MODE_INCREASE_EVENT & gu8TestModeEvents)
// 1161             {
// 1162               clear_event(gu8TestModeEvents,TEST_MODE_INCREASE_EVENT);
// 1163               do{
// 1164                 if(MAX_POWER <= u8TestModePower)
// 1165                 {
// 1166                   u8TestModePower = MIN_POWER;
// 1167                 }
// 1168                 else
// 1169                 { 
// 1170                   u8TestModePower++;
// 1171                 }
// 1172                 u8SafeTimeOut++;
// 1173                 tmpChange = MLMEPAOutputAdjust(u8TestModePower); 
// 1174               }while((gSuccess_c != tmpChange) && (gNumPowerLvlNotOnPALock_c >= u8SafeTimeOut));
// 1175             }
// 1176             else
// 1177             {
// 1178               clear_event(gu8TestModeEvents,TEST_MODE_DECREASE_EVENT);
// 1179   
// 1180               do{
// 1181                 if(MIN_POWER == u8TestModePower)
// 1182                 {
// 1183                   u8TestModePower = MAX_POWER;
// 1184                 }
// 1185                 else 
// 1186                 {
// 1187                   u8TestModePower--;
// 1188                 }
// 1189                 u8SafeTimeOut++;
// 1190                 tmpChange = MLMEPAOutputAdjust(u8TestModePower); 
// 1191               }while((gSuccess_c != tmpChange) && (gNumPowerLvlNotOnPALock_c >= u8SafeTimeOut));
// 1192             }
// 1193 
// 1194 #if (gLCDSupported_d)          
// 1195             LCD_WriteStringValue("POWER LEVEL:",(u8TestModePower),7,gLCD_DecFormat_c);
// 1196 #endif            
// 1197             LEDs_Flash(u8TestModePower, FLASH_DELAY);
// 1198           }
// 1199           break;
// 1200           
// 1201         case gRxTestMode_c:
// 1202           if (TEST_MODE_INCREASE_EVENT & gu8TestModeEvents)
// 1203           {
// 1204             clear_event(gu8TestModeEvents,TEST_MODE_INCREASE_EVENT);           
// 1205             if(SMAC_TEST_MODE_CONTINUOUS_TX_NOMOD == u8CurrentMode)
// 1206             {
// 1207               u8CurrentMode = SMAC_TEST_MODE_IDLE;
// 1208             }            
// 1209             else
// 1210             {
// 1211               u8CurrentMode ++;
// 1212             }
// 1213             MLMETestMode(u8CurrentMode);
// 1214 #if (gLCDSupported_d)            
// 1215             DisplayTestMode(CurrentOption);
// 1216 #endif            
// 1217             LEDs_Flash(u8CurrentMode, FLASH_DELAY);
// 1218           }
// 1219           else if(TEST_MODE_DECREASE_EVENT & gu8TestModeEvents)
// 1220           {
// 1221             clear_event(gu8TestModeEvents,TEST_MODE_DECREASE_EVENT);           
// 1222             if(SMAC_TEST_MODE_IDLE == u8CurrentMode)
// 1223             {
// 1224              u8CurrentMode = SMAC_TEST_MODE_CONTINUOUS_TX_NOMOD;
// 1225             }
// 1226             else
// 1227             {            
// 1228               u8CurrentMode --;
// 1229             }
// 1230             MLMETestMode(u8CurrentMode);
// 1231 #if (gLCDSupported_d)            
// 1232             DisplayTestMode(CurrentOption);
// 1233 #endif            
// 1234             LEDs_Flash(u8CurrentMode, FLASH_DELAY);
// 1235           }
// 1236           
// 1237           RX_msg.u8Status.msg_state = MSG_RX_ACTION_COMPLETE_SUCCESS;
// 1238           LED_SetHex(CurrentOption);
// 1239          
// 1240           while((SMAC_TEST_MODE_PER_RX == u8CurrentMode)  && 
// 1241                 (NO_TEST_MODE_EVENT == gu8TestModeEvents) &&
// 1242                 (gRxTestMode_c == CurrentOption))
// 1243           {
// 1244             if(SMAC_TEST_MODE_PER_RX == u8CurrentMode)            
// 1245             {  
// 1246               packet_error_rate_rx_test();
// 1247             }
// 1248           }  
// 1249           
// 1250           while( (SMAC_TEST_MODE_RANGE_RX == u8CurrentMode) && 
// 1251                  (NO_TEST_MODE_EVENT == gu8TestModeEvents)  &&
// 1252                  (gRxTestMode_c == CurrentOption) )
// 1253           {
// 1254             range_rx_test();
// 1255           }           
// 1256           while( (SMAC_TEST_MODE_PULSE_PRBS9_TX == u8CurrentMode) && 
// 1257                 (NO_TEST_MODE_EVENT == gu8TestModeEvents) &&
// 1258                 (gRxTestMode_c == CurrentOption) )
// 1259           {
// 1260             pulse_prbs9_tx();
// 1261           }
// 1262 
// 1263           while( (SMAC_TEST_MODE_PER_TX == u8CurrentMode) &&  
// 1264                ( NO_TEST_MODE_EVENT == gu8TestModeEvents || TEST_START_EVENT == gu8TestModeEvents )                 
// 1265                 )
// 1266           {
// 1267             packet_error_rate_tx_test();
// 1268           }  
// 1269           
// 1270           while( (SMAC_TEST_MODE_RANGE_TX == u8CurrentMode) &&  
// 1271                ( NO_TEST_MODE_EVENT == gu8TestModeEvents || TEST_START_EVENT == gu8TestModeEvents )                 
// 1272                 )
// 1273           {
// 1274             range_tx_test();
// 1275           }           
// 1276           
// 1277           break;
// 1278           
// 1279         case gBulkCap_c:
// 1280           if (TEST_MODE_INCREASE_EVENT & gu8TestModeEvents)
// 1281           {
// 1282             clear_event(gu8TestModeEvents,TEST_MODE_INCREASE_EVENT);
// 1283             enable_bulk_cap(); 
// 1284             u8BulkCapState = gEnable_c;
// 1285             LEDs_Flash(u8BulkCapState, FLASH_DELAY);
// 1286           }
// 1287           else if(TEST_MODE_DECREASE_EVENT & gu8TestModeEvents)
// 1288           {
// 1289             clear_event(gu8TestModeEvents,TEST_MODE_DECREASE_EVENT);
// 1290             disable_bulk_cap(); 
// 1291             u8BulkCapState = gDisable_c;
// 1292             LEDs_Flash(u8BulkCapState, FLASH_DELAY);
// 1293           }
// 1294           break; 
// 1295             
// 1296         case gCoarseTune_c:
// 1297           if (TEST_MODE_INCREASE_EVENT & gu8TestModeEvents)
// 1298           {
// 1299             clear_event(gu8TestModeEvents,TEST_MODE_INCREASE_EVENT);
// 1300             if(MAX_COARSE_TUNE == u8CurrentCoarseTune)
// 1301             {
// 1302               u8CurrentCoarseTune = MIN_COARSE_TUNE;
// 1303             }
// 1304             else
// 1305             {
// 1306               u8CurrentCoarseTune++;
// 1307             }
// 1308             set_xtal_coarse_tune(u8CurrentCoarseTune);
// 1309             LEDs_Flash(u8CurrentCoarseTune, FLASH_DELAY);
// 1310           }
// 1311           else if(TEST_MODE_DECREASE_EVENT & gu8TestModeEvents)
// 1312           {
// 1313             clear_event(gu8TestModeEvents,TEST_MODE_DECREASE_EVENT);
// 1314             if(MIN_COARSE_TUNE == u8CurrentCoarseTune)
// 1315             {
// 1316               u8CurrentCoarseTune = MAX_COARSE_TUNE;
// 1317             }
// 1318             else
// 1319             {
// 1320               u8CurrentCoarseTune--;
// 1321             }
// 1322             set_xtal_coarse_tune(u8CurrentCoarseTune);
// 1323             LEDs_Flash(u8CurrentCoarseTune, FLASH_DELAY);
// 1324           }
// 1325           break; 
// 1326           
// 1327         case gFineTune_c:
// 1328           if (TEST_MODE_INCREASE_EVENT & gu8TestModeEvents)
// 1329           {
// 1330             clear_event(gu8TestModeEvents,TEST_MODE_INCREASE_EVENT);
// 1331             if(MAX_FINE_TUNE == u8CurrentFineTune)
// 1332             {
// 1333               u8CurrentFineTune = MIN_FINE_TUNE;
// 1334             }
// 1335             else
// 1336             {
// 1337               u8CurrentFineTune++;
// 1338             }
// 1339             set_xtal_fine_tune(u8CurrentFineTune);
// 1340             LEDs_Flash(u8CurrentFineTune, FLASH_DELAY);
// 1341             if(0x0F < u8CurrentFineTune)
// 1342             {
// 1343               LEDs_Flash(u8CurrentFineTune, FLASH_DELAY);
// 1344             }
// 1345           }
// 1346           else if(TEST_MODE_DECREASE_EVENT & gu8TestModeEvents)
// 1347           {
// 1348             clear_event(gu8TestModeEvents,TEST_MODE_DECREASE_EVENT);
// 1349             if(MIN_FINE_TUNE == u8CurrentFineTune)
// 1350             {
// 1351               u8CurrentCoarseTune = MAX_FINE_TUNE;
// 1352             }
// 1353             else
// 1354             {
// 1355               u8CurrentFineTune--;
// 1356             }
// 1357             set_xtal_fine_tune(u8CurrentFineTune);
// 1358             LEDs_Flash(u8CurrentFineTune, FLASH_DELAY);
// 1359             if(0x0F < u8CurrentFineTune)
// 1360             {
// 1361               LEDs_Flash(u8CurrentFineTune, FLASH_DELAY);
// 1362             }
// 1363           }
// 1364           break;  
// 1365           
// 1366         default:
// 1367           break;
// 1368       }
// 1369   #endif
// 1370 #endif
// 1371 
// 1372 }
??process_test_mode_app_7:
        POP      {R0,R3}
        BX       R3               ;; return

        SECTION `.text`:CODE:NOROOT(2)
        SECTION_TYPE SHT_PROGBITS, 0
        DATA
??DataTable124:
        DATA8
        DC8      " L:"

        SECTION `.text`:CODE:NOROOT(2)
        SECTION_TYPE SHT_PROGBITS, 0
        DATA
??DataTable124_1:
        DATA32
        DC32     ?_67

        SECTION `.text`:CODE:NOROOT(2)
        SECTION_TYPE SHT_PROGBITS, 0
        DATA
??DataTable124_2:
        DATA32
        DC32     ?_68

        SECTION `.text`:CODE:NOROOT(2)
        SECTION_TYPE SHT_PROGBITS, 0
        DATA
??DataTable124_3:
        DATA32
        DC32     ku8DoneStrReceiver

        SECTION `.text`:CODE:NOROOT(2)
        SECTION_TYPE SHT_PROGBITS, 0
        DATA
??DataTable124_4:
        DATA32
        DC32     ?_69
// 1373 
// 1374 /************************************************************************************
// 1375 * adjust_LQI
// 1376 *
// 1377 * The purpose of this function is to adjust the link quality indicator value obtained
// 1378 * from the MLMELinkQuality primitive to only four possible values.
// 1379 *
// 1380 ************************************************************************************/
// 1381 

        SECTION `.text`:CODE:NOROOT(1)
        THUMB
// 1382 link_quality_value_t adjust_LQI(uint8_t u8LQI)
// 1383 {
// 1384   link_quality_value_t LQIAdjusted;
// 1385   
// 1386   if(LQI_LIM1 < u8LQI)
adjust_LQI:
        CMP      R0,#+89
        BLT      ??adjust_LQI_0
// 1387   {
// 1388      LQIAdjusted = gFarRange_c;
        MOVS     R0,#+0
        BX       LR
// 1389   }  
// 1390   else
// 1391   {
// 1392     if(LQI_LIM2 < u8LQI)
??adjust_LQI_0:
        CMP      R0,#+81
        BLT      ??adjust_LQI_1
// 1393     {
// 1394        LQIAdjusted = gMediumRange_c;
        MOVS     R0,#+1
        BX       LR
// 1395     }
// 1396     else
// 1397     {
// 1398        if(LQI_LIM3 <= u8LQI)
??adjust_LQI_1:
        CMP      R0,#+60
        BLT      ??adjust_LQI_2
// 1399        {
// 1400          LQIAdjusted = gNearRange_c;
        MOVS     R0,#+2
        BX       LR
// 1401        }
// 1402        else
// 1403        {
// 1404          LQIAdjusted = gVeryNearRange_c;
??adjust_LQI_2:
        MOVS     R0,#+3
// 1405        }
// 1406      }
// 1407   }
// 1408   return LQIAdjusted;
        BX       LR               ;; return
// 1409 }
// 1410 
// 1411 
// 1412 /************************************************************************************
// 1413 * convert_2_bcd function
// 1414 *
// 1415 * This function converts the received data as parameter to bcd format
// 1416 *
// 1417 ************************************************************************************/

        SECTION `.text`:CODE:NOROOT(1)
        THUMB
// 1418 static four_digit_bcd_t convert_2_bcd(uint16_t u16Value)
// 1419 {
convert_2_bcd:
        PUSH     {R2-R7,LR}
// 1420   four_digit_bcd_t u16RtrnVal = {0,0,0,0,0,0};
        LDR      R1,??DataTable128_1
        LDR      R1,[R1, #+0]
        STR      R1,[SP, #+4]
// 1421   uint16_t tmp;
// 1422   if(10000 > u16Value)
        LSLS     R5,R0,#+16
        LSRS     R5,R5,#+16
        LDR      R1,??DataTable129  ;; 0x2710
        CMP      R5,R1
        BGE      ??convert_2_bcd_0
// 1423   {
// 1424     tmp = u16Value;
        MOVS     R1,R0
// 1425     if(1000 <= u16Value)
        MOVS     R4,#+15
        MOVS     R6,#+250
        LSLS     R6,R6,#+2        ;; #+1000
        CMP      R5,R6
        BLT      ??convert_2_bcd_1
// 1426     {
// 1427       tmp = u16Value/1000;
// 1428       u16RtrnVal.u8Thousands = tmp;
        ADD      R0,SP,#+4
        LDRB     R7,[R0, #+1]
        ANDS     R7,R7,R4
        MOVS     R0,R5
        MOVS     R1,R6
        BL       __aeabi_idiv
        LSLS     R0,R0,#+4
        ORRS     R0,R0,R7
        ADD      R1,SP,#+4
        STRB     R0,[R1, #+1]
// 1429       tmp = u16Value%1000;
        MOVS     R0,R5
        MOVS     R1,R6
        BL       __aeabi_idivmod
// 1430       u16Value = tmp;
        MOVS     R0,R1
// 1431     }
// 1432     if(100 <= u16Value)
??convert_2_bcd_1:
        LSLS     R6,R0,#+16
        LSRS     R6,R6,#+16
        MOVS     R5,#+240
        CMP      R6,#+100
        BLT      ??convert_2_bcd_2
// 1433     {
// 1434       tmp = u16Value/100;
// 1435       u16RtrnVal.u8Houndreds = tmp;
        ADD      R0,SP,#+4
        LDRB     R1,[R0, #+1]
        ANDS     R1,R1,R5
        STR      R1,[SP, #+0]
        MOVS     R0,R6
        MOVS     R1,#+100
        BL       __aeabi_idiv
        ANDS     R0,R0,R4
        LDR      R1,[SP, #+0]
        ORRS     R0,R0,R1
        ADD      R1,SP,#+4
        STRB     R0,[R1, #+1]
// 1436       tmp = u16Value%100;
        MOVS     R0,R6
        MOVS     R1,#+100
        BL       __aeabi_idivmod
// 1437       u16Value = tmp;
        MOVS     R0,R1
// 1438     }
// 1439     if(10 <= u16Value)
??convert_2_bcd_2:
        LSLS     R6,R0,#+16
        LSRS     R6,R6,#+16
        CMP      R6,#+10
        BLT      ??convert_2_bcd_3
// 1440     {
// 1441       tmp = u16Value/10;
// 1442       u16RtrnVal.u8Tens = tmp;
        MOV      R0,SP
        LDRB     R0,[R0, #+4]
        ANDS     R0,R0,R4
        STR      R0,[SP, #+0]
        MOVS     R0,R6
        MOVS     R1,#+10
        BL       __aeabi_idiv
        LSLS     R1,R0,#+4
        LDR      R0,[SP, #+0]
        ORRS     R1,R1,R0
        MOV      R0,SP
        STRB     R1,[R0, #+4]
// 1443       tmp = u16Value%10;
        MOVS     R0,R6
        MOVS     R1,#+10
        BL       __aeabi_idivmod
// 1444       u16Value = tmp;
// 1445     }
// 1446     u16RtrnVal.u8Units = tmp;
??convert_2_bcd_3:
        MOV      R0,SP
        LDRB     R0,[R0, #+4]
        ANDS     R5,R5,R0
        ANDS     R4,R4,R1
        ORRS     R4,R4,R5
        MOV      R0,SP
        STRB     R4,[R0, #+4]
// 1447   }
// 1448   return u16RtrnVal;
??convert_2_bcd_0:
        LDR      R0,[SP, #+4]
        POP      {R1,R2,R4-R7}
        POP      {R3}
        BX       R3               ;; return
// 1449 }

        SECTION `.text`:CODE:NOROOT(2)
        SECTION_TYPE SHT_PROGBITS, 0
        DATA
??DataTable125:
        DATA8
        DC8      "/",0x0,0x0

        SECTION `.text`:CODE:NOROOT(2)
        SECTION_TYPE SHT_PROGBITS, 0
        DATA
??DataTable125_1:
        DATA32
        DC32     ?_71

        SECTION `.text`:CODE:NOROOT(2)
        SECTION_TYPE SHT_PROGBITS, 0
        DATA
??DataTable125_2:
        DATA8
        DC8      0x0D, 0x0A, 0x00, 0x00

        SECTION `.text`:CODE:NOROOT(2)
        SECTION_TYPE SHT_PROGBITS, 0
        DATA
??DataTable125_3:
        DATA32
        DC32     ?_73

        SECTION `.text`:CODE:NOROOT(2)
        SECTION_TYPE SHT_PROGBITS, 0
        DATA
??DataTable125_4:
        DATA8
        DC8      0x30, 0x78, 0x00, 0x00

        SECTION `.text`:CODE:NOROOT(2)
        SECTION_TYPE SHT_PROGBITS, 0
        DATA
??DataTable125_5:
        DATA8
        DC8      " ",0x0,0x0

        SECTION `.text`:CODE:NOROOT(2)
        SECTION_TYPE SHT_PROGBITS, 0
        DATA
??DataTable125_6:
        DATA8
        DC8      "\n",0x0,0x0

        SECTION `.text`:CODE:NOROOT(2)
        SECTION_TYPE SHT_PROGBITS, 0
        DATA
??DataTable125_7:
        DATA32
        DC32     u8RangeExpectedString
// 1450 
// 1451 
// 1452 
// 1453 /************************************************************************************
// 1454 * LEDs_Flash
// 1455 *
// 1456 * This function flash the binary number of the received parameter through LEDs.
// 1457 *
// 1458 ************************************************************************************/
// 1459 

        SECTION `.text`:CODE:NOROOT(1)
        THUMB
// 1460 void LEDs_Flash(uint8_t u8leds_state, uint32_t msec)
// 1461 {
LEDs_Flash:
        PUSH     {R3-R5,LR}
        MOVS     R5,R0
        MOVS     R4,R1
// 1462   LED_TurnOffAllLeds();  
        BL       LED_TurnOffAllLeds
// 1463   DelayMs(msec);
        MOVS     R0,R4
        BL       DelayMs
// 1464   LED_SetHex(u8leds_state);
        MOVS     R0,R5
        BL       LED_SetHex
// 1465   DelayMs(msec);  
        MOVS     R0,R4
        BL       DelayMs
// 1466   LED_TurnOffAllLeds(); 
        BL       LED_TurnOffAllLeds
// 1467   DelayMs(msec);
        MOVS     R0,R4
        BL       DelayMs
// 1468 }
        POP      {R0,R4,R5}
        POP      {R3}
        BX       R3               ;; return
// 1469 
// 1470 /************************************************************************************
// 1471 * LoadPRBS9
// 1472 *
// 1473 * The purpose of this function is to load the pseudo random binary sequence order 9 
// 1474 * in a transmission message. The polynomial to transmit is the following:
// 1475 *
// 1476 *
// 1477 ************************************************************************************/

        SECTION `.text`:CODE:NOROOT(1)
        THUMB
// 1478 void LoadPRBS9(void)
// 1479 {
LoadPRBS9:
        PUSH     {R4-R7}
// 1480   uint8_t u8c1;                           /* Byte counter */
// 1481   uint8_t u8c2;                           /* Bit counter */
// 1482   uint16_t u16t1;                         /* LFSR */
// 1483   uint16_t u16t2;                         /* LFSR output */
// 1484   uint16_t u16t3;                         /* LFSR feedback tap */
// 1485   uint8_t u8t4;                           /* Assembled transmit byte */
// 1486   
// 1487   u16t1 = 0x01FF;                       /* Initialize the LFSR */
        LDR      R6,??DataTable129_1  ;; 0x1ff
// 1488   for (u8c1=0; u8c1<64; u8c1++)         /* Byte counter */
        MOVS     R0,#+0
        MOVS     R1,#+0
// 1489   {
// 1490     u8t4 = 0x00;                        /* Initialize the byte */
??LoadPRBS9_0:
        MOVS     R4,#+0
// 1491     for (u8c2=0; u8c2<8; u8c2++)        /* Bit counter */
        MOVS     R5,#+0
// 1492     {
// 1493       u16t2 = (u16t1 & 0x0001);       /* LFSR output */
??LoadPRBS9_1:
        MOVS     R2,#+1
        MOVS     R3,R6
        ANDS     R3,R3,R2
// 1494       if (u16t2 == 0x0001)
        BEQ      ??LoadPRBS9_2
// 1495       {
// 1496         u8t4 = (uint8_t)(u8t4 | 0x80);         /* Set/Clear byte based on LFSR output */
        MOVS     R7,R4
        MOVS     R4,#+128
        ORRS     R4,R4,R7
// 1497       }
// 1498       if (u8c2 != 7)
??LoadPRBS9_2:
        LSLS     R7,R5,#+24
        LSRS     R7,R7,#+24
        CMP      R7,#+7
        BEQ      ??LoadPRBS9_3
// 1499       {
// 1500         u8t4 = (uint8_t)(u8t4 >> 1);           /* LSBit will be first bit out of LFSR */
        LSLS     R4,R4,#+24
        LSRS     R4,R4,#+25
// 1501       }
// 1502       
// 1503       u16t3 = ((u16t1 & 0x0010) >> 4);/* LFSR tap */
??LoadPRBS9_3:
        LSLS     R7,R6,#+24
        LSRS     R7,R7,#+28
        ANDS     R2,R2,R7
// 1504       u16t1 = u16t1 >> 1;             /* Now shift the LFSR */
        LSLS     R7,R6,#+15
        LSRS     R7,R7,#+16
// 1505       if (u16t2 == u16t3)             /* Set/Clr the LFSR MSBit */
        CMP      R3,R2
        BNE      ??LoadPRBS9_4
// 1506       {
// 1507         u16t1 = u16t1 & 0xFEFF;
        LDR      R6,??DataTable130  ;; 0xfeff
        ANDS     R6,R6,R7
        B        ??LoadPRBS9_5
// 1508       }
// 1509       else
// 1510       {
// 1511         u16t1 = u16t1 | 0x0100;
??LoadPRBS9_4:
        MOVS     R6,#+128
        LSLS     R6,R6,#+1        ;; #+256
        ORRS     R6,R6,R7
// 1512       }
// 1513       }
??LoadPRBS9_5:
        ADDS     R5,R5,#+1
        LSLS     R2,R5,#+24
        LSRS     R2,R2,#+24
        CMP      R2,#+8
        BLT      ??LoadPRBS9_1
// 1514       TX_msg.pu8Buffer->u8Data[u8c1] = u8t4;
        LDR      R2,??DataTable131
        LDR      R2,[R2, #+4]
        LSLS     R3,R1,#+24
        LSRS     R3,R3,#+24
        ADDS     R2,R2,R3
        STRB     R4,[R2, #+2]
// 1515     } 
        ADDS     R1,R1,#+1
        LSLS     R2,R1,#+24
        LSRS     R2,R2,#+24
        CMP      R2,#+64
        BLT      ??LoadPRBS9_0
// 1516   TX_msg.pu8Buffer->u8Data[64] = '\0';
        LDR      R1,??DataTable131
        LDR      R2,[R1, #+4]
        MOVS     R3,#+66
        STRB     R0,[R2, R3]
// 1517   TX_msg.u8BufSize = 65;
        MOVS     R0,#+65
        STRB     R0,[R1, #+8]
// 1518 }
        POP      {R4-R7}
        BX       LR               ;; return

        SECTION `.text`:CODE:NOROOT(2)
        SECTION_TYPE SHT_PROGBITS, 0
        DATA
??DataTable126:
        DATA32
        DC32     ?_77
// 1519 
// 1520 /************************************************************************************
// 1521 * main_menu
// 1522 *
// 1523 * This function displays the main menu for the serial interface and waits until the 
// 1524 * user select an option.
// 1525 *
// 1526 ************************************************************************************/
// 1527 

        SECTION `.text`:CODE:NOROOT(2)
        THUMB
// 1528 char main_menu(){
main_menu:
        PUSH     {R4,LR}
// 1529   Uart_Print("\r ______________________________________\n");
        LDR      R4,??DataTable130_1
        MOVS     R0,R4
        BL       Uart_Print
// 1530   Uart_Print("\r|                                      |\n");
        MOVS     R0,R4
        ADDS     R0,R0,#+44
        BL       Uart_Print
// 1531   Uart_Print("\r|    Connectivity Test Interface    |\n");
        MOVS     R0,R4
        ADDS     R0,R0,#+88
        BL       Uart_Print
// 1532   Uart_Print("\r|______________________________________|\n\n");
        MOVS     R0,R4
        ADDS     R0,R0,#+128
        BL       Uart_Print
// 1533   Uart_Print("\r      1 - CHANGE CHANNEL\n");
        Nop      
        ADR.N    R0,?_80
        BL       Uart_Print
// 1534   Uart_Print("\r      2 - ADJUST OUTPUT POWER\n");
        Nop      
        ADR.N    R0,?_81
        BL       Uart_Print
// 1535   Uart_Print("\r      3 - SELECT TEST MODE\n");
        LDR      R0,??DataTable130_2
        BL       Uart_Print
// 1536   Uart_Print("\r      4 - ADJUST CLOCK SETTINGS\n\n");
        MOVS     R0,R4
        ADDS     R0,R0,#+172
        BL       Uart_Print
// 1537   Uart_Print("\r      Note: Case sensitive.");
        ADR.N    R0,?_83
        BL       Uart_Print
// 1538   Uart_Print("\r\n\n Please select an option:  ");
        LDR      R0,??DataTable131_1
        B.N      ?Subroutine1
// 1539   return Uart_getchar(mUARTRxBuffer);
// 1540 }

        SECTION `.text`:CODE:NOROOT(2)
        SECTION_TYPE SHT_PROGBITS, 0
        DATA
??DataTable127:
        DATA32
        DC32     RX_msg

        SECTION `.text`:CODE:NOROOT(2)
        SECTION_TYPE SHT_PROGBITS, 0
        DATA
?_80:
        DC8 "\015      1 - CHANGE CHANNEL\012"
        DATA8
        DC8 0

        SECTION `.text`:CODE:NOROOT(2)
        SECTION_TYPE SHT_PROGBITS, 0
        DATA
?_81:
        DC8 "\015      2 - ADJUST OUTPUT POWER\012"

        SECTION `.text`:CODE:NOROOT(2)
        SECTION_TYPE SHT_PROGBITS, 0
        DATA
?_83:
        DC8 "\015      Note: Case sensitive."
        DC8 0, 0, 0
// 1541 
// 1542 /************************************************************************************
// 1543 * channel_menu
// 1544 *
// 1545 * This function displays the possible channels when the channel option is selected 
// 1546 * and waits for a user selection.
// 1547 *
// 1548 ************************************************************************************/
// 1549 

        SECTION `.text`:CODE:NOROOT(2)
        THUMB
// 1550 char channel_menu(void){
channel_menu:
        PUSH     {R3-R5,LR}
// 1551   Uart_Print("\r\n     ___________________________________ \n");
        LDR      R4,??DataTable131_2
        MOVS     R0,R4
        BL       Uart_Print
// 1552   Uart_Print("\r    |                                   |\n");
        MOVS     R0,R4
        ADDS     R0,R0,#+48
        BL       Uart_Print
// 1553   Uart_Print("\r    |      Channel Adjustment Menu      |\n");
        MOVS     R0,R4
        ADDS     R0,R0,#+92
        BL       Uart_Print
// 1554   Uart_Print("\r    |___________________________________|\n\n");
        MOVS     R0,R4
        ADDS     R0,R0,#+136
        BL       Uart_Print
// 1555   Uart_Print("\r    Current Channel: ");
        LDR      R0,??DataTable131_3
        BL       Uart_Print
// 1556   PrintChannel(u8TestModeChannel);
        LDR      R5,??DataTable131_4
        LDRB     R0,[R5, #+17]
        BL       PrintChannel
// 1557   Uart_Print("\n");
        ADR      R0,??DataTable131_5  ;; "\n"
        BL       Uart_Print
// 1558   Uart_Print("\r      0 - CHANNEL 11");
        LDR      R0,??DataTable131_6
        BL       Uart_Print
// 1559   Uart_Print("      8 - CHANNEL 19\n");
        LDR      R0,??DataTable132
        BL       Uart_Print
// 1560   Uart_Print("\r      1 - CHANNEL 12");
        LDR      R0,??DataTable132_1
        BL       Uart_Print
// 1561   Uart_Print("      9 - CHANNEL 20\n");
        LDR      R0,??DataTable132_2
        BL       Uart_Print
// 1562   Uart_Print("\r      2 - CHANNEL 13");
        Nop      
        ADR.N    R0,?_90
        BL       Uart_Print
// 1563   Uart_Print("      A - CHANNEL 21\n");
        LDR      R0,??DataTable132_3
        BL       Uart_Print
// 1564   Uart_Print("\r      3 - CHANNEL 14");
        LDR      R0,??DataTable132_4
        BL       Uart_Print
// 1565   Uart_Print("      B - CHANNEL 22\n");
        LDR      R0,??DataTable132_5
        BL       Uart_Print
// 1566   Uart_Print("\r      4 - CHANNEL 15");
        ADR.N    R0,?_94
        BL       Uart_Print
// 1567   Uart_Print("      C - CHANNEL 23\n");
        LDR      R0,??DataTable132_6
        BL       Uart_Print
// 1568   Uart_Print("\r      5 - CHANNEL 16");
        LDR      R0,??DataTable132_7
        BL       Uart_Print
// 1569   Uart_Print("      D - CHANNEL 24\n");
        LDR      R0,??DataTable132_8
        BL       Uart_Print
// 1570   Uart_Print("\r      6 - CHANNEL 17");
        ADR.N    R0,?_98
        BL       Uart_Print
// 1571   Uart_Print("      E - CHANNEL 25\n");  
        LDR      R0,??DataTable132_9
        BL       Uart_Print
// 1572   Uart_Print("\r      7 - CHANNEL 18");
        LDR      R0,??DataTable132_10
        BL       Uart_Print
// 1573   if(gPowerLevelLock_c == FALSE)
// 1574   {
// 1575     Uart_Print("      F - CHANNEL 26\n");      
        LDR      R0,??DataTable133
        B.N      ??Subroutine0_0
// 1576   }
// 1577   else
// 1578   {
// 1579     Uart_Print("\n");
// 1580   }
// 1581   Uart_Print("\r      p - Previous Menu\n");      
// 1582   Uart_Print("\r\n    Please select an option:  ");
// 1583   return Uart_getchar(mUARTRxBuffer);
// 1584 }

        SECTION `.text`:CODE:NOROOT(2)
        SECTION_TYPE SHT_PROGBITS, 0
        DATA
??DataTable128:
        DATA32
        DC32     ?_78

        SECTION `.text`:CODE:NOROOT(2)
        SECTION_TYPE SHT_PROGBITS, 0
        DATA
??DataTable128_1:
        DATA32
        DC32     ?_79

        SECTION `.text`:CODE:NOROOT(2)
        SECTION_TYPE SHT_PROGBITS, 0
        DATA
?_90:
        DC8 "\015      2 - CHANNEL 13"
        DATA16
        DC8 0, 0

        SECTION `.text`:CODE:NOROOT(2)
        SECTION_TYPE SHT_PROGBITS, 0
        DATA
?_94:
        DC8 "\015      4 - CHANNEL 15"
        DATA16
        DC8 0, 0

        SECTION `.text`:CODE:NOROOT(2)
        SECTION_TYPE SHT_PROGBITS, 0
        DATA
?_98:
        DC8 "\015      6 - CHANNEL 17"
        DATA16
        DC8 0, 0
// 1585 
// 1586 
// 1587 /************************************************************************************
// 1588 * test_mode_rx_menu
// 1589 *
// 1590 * This function displays the test mode options when the SELECT TEST MODE is 
// 1591 * selected.
// 1592 *
// 1593 ************************************************************************************/
// 1594 

        SECTION `.text`:CODE:NOROOT(2)
        THUMB
// 1595 char test_mode_rx_menu(void){
test_mode_rx_menu:
        PUSH     {R3-R5,LR}
// 1596   Uart_Print("\r\n     __________________________\n");
        LDR      R4,??DataTable133_1
        MOVS     R0,R4
        BL       Uart_Print
// 1597   Uart_Print("\r    |                          |\n");
        MOVS     R0,R4
        ADDS     R0,R0,#+36
        BL       Uart_Print
// 1598   Uart_Print("\r    |   Reception Tests Menu   |\n");
        MOVS     R0,R4
        ADDS     R0,R0,#+72
        BL       Uart_Print
// 1599   Uart_Print("\r    |__________________________|\n\n");  
        MOVS     R0,R4
        ADDS     R0,R0,#+108
        BL       Uart_Print
// 1600   Uart_Print("\r    Current Test Mode: ");
        LDR      R0,??DataTable133_2
        BL       Uart_Print
// 1601   PrintTestMode(u8CurrentMode);
        LDR      R5,??DataTable131_4
        LDRB     R0,[R5, #+16]
        BL       PrintTestMode
// 1602   Uart_Print("\r\n      I - IDLE\n");
        LDR      R0,??DataTable134
        BL       Uart_Print
// 1603   Uart_Print("\r      R - RECEPTION\n");
        Nop      
        ADR.N    R0,?_105
        BL       Uart_Print
// 1604   Uart_Print("\r      P - PACKET ERROR RATE RECEIVER\n");
        MOVS     R0,R4
        ADDS     R0,R0,#+144
        BL       Uart_Print
// 1605   Uart_Print("\r      r - RANGE TEST RECEIVER\n");
        Nop      
        ADR.N    R0,?_106
        B.N      ??Subroutine0_0
// 1606   Uart_Print("\r      p - Previous Menu\n");      
// 1607   Uart_Print("\r\n\n    Please select an option:  ");
// 1608   return Uart_getchar(mUARTRxBuffer);
// 1609 }

        SECTION `.text`:CODE:NOROOT(2)
        SECTION_TYPE SHT_PROGBITS, 0
        DATA
??DataTable129:
        DATA32
        DC32     0x2710

        SECTION `.text`:CODE:NOROOT(2)
        SECTION_TYPE SHT_PROGBITS, 0
        DATA
??DataTable129_1:
        DATA32
        DC32     0x1ff

        SECTION `.text`:CODE:NOROOT(2)
        SECTION_TYPE SHT_PROGBITS, 0
        DATA
?_105:
        DC8 "\015      R - RECEPTION\012"
        DATA16
        DC8 0, 0

        SECTION `.text`:CODE:NOROOT(2)
        SECTION_TYPE SHT_PROGBITS, 0
        DATA
?_106:
        DC8 "\015      r - RANGE TEST RECEIVER\012"
// 1610 
// 1611 /************************************************************************************
// 1612 * test_mode_tx_menu
// 1613 *
// 1614 * This function displays the test mode options when the SELECT TEST MODE is 
// 1615 * selected.
// 1616 *
// 1617 ************************************************************************************/

        SECTION `.text`:CODE:NOROOT(2)
        THUMB
// 1618 char test_mode_tx_menu(void){
test_mode_tx_menu:
        PUSH     {R3-R5,LR}
// 1619   Uart_Print("\r\n     _____________________________\n");
        LDR      R4,??DataTable133_1
        MOVS     R0,R4
        ADDS     R0,R0,#+220
        BL       Uart_Print
// 1620   Uart_Print("\r    |                             |\n");
        MOVS     R0,#+130
        LSLS     R0,R0,#+1        ;; #+260
        ADDS     R0,R4,R0
        BL       Uart_Print
// 1621   Uart_Print("\r    |   Transmission Tests Menu   |\n");
        MOVS     R0,#+150
        LSLS     R0,R0,#+1        ;; #+300
        ADDS     R0,R4,R0
        BL       Uart_Print
// 1622   Uart_Print("\r    |_____________________________|\n\n");  
        MOVS     R0,#+170
        LSLS     R0,R0,#+1        ;; #+340
        ADDS     R0,R4,R0
        BL       Uart_Print
// 1623   Uart_Print("\r    Current Test Mode: ");
        Nop      
        ADR.N    R0,?_103
        BL       Uart_Print
// 1624   PrintTestMode(u8CurrentMode);
        LDR      R5,??DataTable131_4
        LDRB     R0,[R5, #+16]
        BL       PrintTestMode
// 1625   Uart_Print("\r\n      I - IDLE\n");
        Nop      
        ADR.N    R0,?_104
        BL       Uart_Print
// 1626   Uart_Print("\r      T - CONTINUOUS TRANSMISSION\n");
        MOVS     R0,#+190
        LSLS     R0,R0,#+1        ;; #+380
        ADDS     R0,R4,R0
        BL       Uart_Print
// 1627   Uart_Print("\r      P - PACKET ERROR RATE TRANSMITTER\n");
        MOVS     R0,#+208
        LSLS     R0,R0,#+1        ;; #+416
        ADDS     R0,R4,R0
        BL       Uart_Print
// 1628   Uart_Print("\r      r - RANGE TEST TRANSMITTER\n");
        MOVS     R0,#+230
        LSLS     R0,R0,#+1        ;; #+460
        B.N      ?Subroutine0
// 1629   Uart_Print("\r      p - Previous Menu\n");      
// 1630   Uart_Print("\r\n\n    Please select an option:  ");
// 1631   return Uart_getchar(mUARTRxBuffer);
// 1632 }

        SECTION `.text`:CODE:NOROOT(2)
        SECTION_TYPE SHT_PROGBITS, 0
        DATA
??DataTable130:
        DATA32
        DC32     0xfeff

        SECTION `.text`:CODE:NOROOT(2)
        SECTION_TYPE SHT_PROGBITS, 0
        DATA
??DataTable130_1:
        DATA32
        DC32     ?_0

        SECTION `.text`:CODE:NOROOT(2)
        SECTION_TYPE SHT_PROGBITS, 0
        DATA
??DataTable130_2:
        DATA32
        DC32     ?_82

        SECTION `.text`:CODE:NOROOT(2)
        SECTION_TYPE SHT_PROGBITS, 0
        DATA
?_103:
        DC8 "\015    Current Test Mode: "
        DC8 0, 0, 0

        SECTION `.text`:CODE:NOROOT(2)
        SECTION_TYPE SHT_PROGBITS, 0
        DATA
?_104:
        DC8 "\015\012      I - IDLE\012"
        DATA16
        DC8 0, 0
// 1633 
// 1634 
// 1635 /************************************************************************************
// 1636 * select_test_mode_menu
// 1637 *
// 1638 * This function displays the option to select between TX and RX mode
// 1639 *
// 1640 ************************************************************************************/
// 1641 

        SECTION `.text`:CODE:NOROOT(2)
        THUMB
// 1642 char select_test_mode_menu(void){
select_test_mode_menu:
        PUSH     {R4,LR}
// 1643   Uart_Print("\r\n     __________________________\n");
        LDR      R4,??DataTable133_1
        MOVS     R0,R4
        BL       Uart_Print
// 1644   Uart_Print("\r    |                          |\n");
        MOVS     R0,R4
        ADDS     R0,R0,#+36
        BL       Uart_Print
// 1645   Uart_Print("\r    |   TX / RX Menu   |\n");
        Nop      
        ADR.N    R0,?_107
        BL       Uart_Print
// 1646   Uart_Print("\r    |__________________________|\n\n");  
        MOVS     R0,R4
        ADDS     R0,R0,#+108
        BL       Uart_Print
// 1647   Uart_Print("\r      R - RECEIVER MODE \n");
        LDR      R0,??DataTable135
        BL       Uart_Print
// 1648   Uart_Print("\r      T - TRANSMITTER MODE \n");
        LDR      R0,??DataTable135_1
        BL       Uart_Print
// 1649   Uart_Print("\r      p - Previous Menu\n");      
        LDR      R0,??DataTable135_2
        BL       Uart_Print
// 1650   Uart_Print("\r\n\n    Please select an option:  ");
        MOVS     R0,R4
        ADDS     R0,R0,#+184
        REQUIRE ?Subroutine1
        ;; // Fall through to label ?Subroutine1
// 1651   return Uart_getchar(mUARTRxBuffer);
// 1652 }

        SECTION `.text`:CODE:NOROOT(1)
        THUMB
?Subroutine1:
        BL       Uart_Print
        LDR      R0,??DataTable135_3
        REQUIRE ??Subroutine3_0
        ;; // Fall through to label ??Subroutine3_0

        SECTION `.text`:CODE:NOROOT(1)
        THUMB
??Subroutine3_0:
        BL       Uart_getchar
        REQUIRE ??Subroutine4_0
        ;; // Fall through to label ??Subroutine4_0

        SECTION `.text`:CODE:NOROOT(1)
        THUMB
??Subroutine4_0:
        POP      {R4}
        POP      {R3}
        BX       R3               ;; return

        SECTION `.text`:CODE:NOROOT(2)
        SECTION_TYPE SHT_PROGBITS, 0
        DATA
??DataTable131:
        DATA32
        DC32     TX_msg

        SECTION `.text`:CODE:NOROOT(2)
        SECTION_TYPE SHT_PROGBITS, 0
        DATA
??DataTable131_1:
        DATA32
        DC32     ?_84

        SECTION `.text`:CODE:NOROOT(2)
        SECTION_TYPE SHT_PROGBITS, 0
        DATA
??DataTable131_2:
        DATA32
        DC32     ?_5

        SECTION `.text`:CODE:NOROOT(2)
        SECTION_TYPE SHT_PROGBITS, 0
        DATA
??DataTable131_3:
        DATA32
        DC32     ?_85

        SECTION `.text`:CODE:NOROOT(2)
        SECTION_TYPE SHT_PROGBITS, 0
        DATA
??DataTable131_4:
        DATA32
        DC32     RX_msg

        SECTION `.text`:CODE:NOROOT(2)
        SECTION_TYPE SHT_PROGBITS, 0
        DATA
??DataTable131_5:
        DATA8
        DC8      "\n",0x0,0x0

        SECTION `.text`:CODE:NOROOT(2)
        SECTION_TYPE SHT_PROGBITS, 0
        DATA
??DataTable131_6:
        DATA32
        DC32     ?_86

        SECTION `.text`:CODE:NOROOT(2)
        SECTION_TYPE SHT_PROGBITS, 0
        DATA
?_107:
        DC8 "\015    |   TX / RX Menu   |\012"
        DATA8
        DC8 0
// 1653 
// 1654 /************************************************************************************
// 1655 * test_transmission_menu
// 1656 *
// 1657 * This function displays the transmissions options when the transmission option 
// 1658 * is selected in the main menu.
// 1659 *
// 1660 ************************************************************************************/

        SECTION `.text`:CODE:NOROOT(2)
        THUMB
// 1661 char test_transmission_menu(void)
// 1662 {
test_transmission_menu:
        PUSH     {R3-R5,LR}
// 1663   Uart_Print("\r\n     ______________________________________\n");
        LDR      R4,??DataTable133_1
        MOVS     R0,#+248
        LSLS     R0,R0,#+1        ;; #+496
        ADDS     R0,R4,R0
        BL       Uart_Print
// 1664   Uart_Print("\r    |                                      |\n");
        MOVS     R0,#+136
        LSLS     R0,R0,#+2        ;; #+544
        ADDS     R0,R4,R0
        BL       Uart_Print
// 1665   Uart_Print("\r    |  Continuous Transmission Tests Menu  |\n");
        MOVS     R0,#+148
        LSLS     R0,R0,#+2        ;; #+592
        ADDS     R0,R4,R0
        BL       Uart_Print
// 1666   Uart_Print("\r    |______________________________________|\n\n");  
        MOVS     R0,#+160
        LSLS     R0,R0,#+2        ;; #+640
        ADDS     R0,R4,R0
        BL       Uart_Print
// 1667   Uart_Print("\r    Current Transmission Test: ");
        MOVS     R0,#+172
        LSLS     R0,R0,#+2        ;; #+688
        ADDS     R0,R4,R0
        BL       Uart_Print
// 1668   PrintTestMode(u8CurrentMode);
        LDR      R5,??DataTable136
        LDRB     R0,[R5, #+16]
        BL       PrintTestMode
// 1669   Uart_Print("\r      S - PULSE PSEUDO RANDOM BINARY SEQUENCE TRANSMISSION\n");
        MOVS     R0,#+181
        LSLS     R0,R0,#+2        ;; #+724
        ADDS     R0,R4,R0
        BL       Uart_Print
// 1670   Uart_Print("\r      M - MODULATED TRANSMISSION\n");  
        MOVS     R0,#+197
        LSLS     R0,R0,#+2        ;; #+788
        ADDS     R0,R4,R0
        BL       Uart_Print
// 1671   Uart_Print("\r      U - UNMODULATED TRANSMISSION\n");
        MOVS     R0,#+206
        LSLS     R0,R0,#+2        ;; #+824
        Nop      
        REQUIRE ?Subroutine0
        ;; // Fall through to label ?Subroutine0
// 1672   Uart_Print("\r      p - Previous Menu\n");      
// 1673   Uart_Print("\r\n\n    Please select an option:  ");
// 1674   return Uart_getchar(mUARTRxBuffer);
// 1675 }

        SECTION `.text`:CODE:NOROOT(2)
        THUMB
?Subroutine0:
        ADDS     R0,R4,R0
??Subroutine0_0:
        BL       Uart_Print
        Nop      
        ADR.N    R0,?_102
        BL       Uart_Print
        MOVS     R0,R4
        ADDS     R0,R0,#+184
        BL       Uart_Print
        MOVS     R0,R5
        ADDS     R0,R0,#+32
        BL       Uart_getchar
        POP      {R1,R4,R5}
        POP      {R3}
        BX       R3               ;; return

        SECTION `.text`:CODE:NOROOT(2)
        SECTION_TYPE SHT_PROGBITS, 0
        DATA
??DataTable132:
        DATA32
        DC32     ?_87

        SECTION `.text`:CODE:NOROOT(2)
        SECTION_TYPE SHT_PROGBITS, 0
        DATA
??DataTable132_1:
        DATA32
        DC32     ?_88

        SECTION `.text`:CODE:NOROOT(2)
        SECTION_TYPE SHT_PROGBITS, 0
        DATA
??DataTable132_2:
        DATA32
        DC32     ?_89

        SECTION `.text`:CODE:NOROOT(2)
        SECTION_TYPE SHT_PROGBITS, 0
        DATA
??DataTable132_3:
        DATA32
        DC32     ?_91

        SECTION `.text`:CODE:NOROOT(2)
        SECTION_TYPE SHT_PROGBITS, 0
        DATA
??DataTable132_4:
        DATA32
        DC32     ?_92

        SECTION `.text`:CODE:NOROOT(2)
        SECTION_TYPE SHT_PROGBITS, 0
        DATA
??DataTable132_5:
        DATA32
        DC32     ?_93

        SECTION `.text`:CODE:NOROOT(2)
        SECTION_TYPE SHT_PROGBITS, 0
        DATA
??DataTable132_6:
        DATA32
        DC32     ?_95

        SECTION `.text`:CODE:NOROOT(2)
        SECTION_TYPE SHT_PROGBITS, 0
        DATA
??DataTable132_7:
        DATA32
        DC32     ?_96

        SECTION `.text`:CODE:NOROOT(2)
        SECTION_TYPE SHT_PROGBITS, 0
        DATA
??DataTable132_8:
        DATA32
        DC32     ?_97

        SECTION `.text`:CODE:NOROOT(2)
        SECTION_TYPE SHT_PROGBITS, 0
        DATA
??DataTable132_9:
        DATA32
        DC32     ?_99

        SECTION `.text`:CODE:NOROOT(2)
        SECTION_TYPE SHT_PROGBITS, 0
        DATA
??DataTable132_10:
        DATA32
        DC32     ?_100

        SECTION `.text`:CODE:NOROOT(2)
        SECTION_TYPE SHT_PROGBITS, 0
        DATA
?_102:
        DC8 "\015      p - Previous Menu\012"
        DATA16
        DC8 0, 0
// 1676 
// 1677 
// 1678 /************************************************************************************
// 1679 * clock_settings_menu
// 1680 *
// 1681 * This function displays a menu with the clock settings options and waits for a 
// 1682 * user selection.
// 1683 *
// 1684 ************************************************************************************/
// 1685 

        SECTION `.text`:CODE:NOROOT(2)
        THUMB
// 1686 char clock_setting_menu(void)
// 1687 {
clock_setting_menu:
        PUSH     {R7,LR}
// 1688   Uart_Print("\r\n     _____________________");
        Nop      
        ADR.N    R0,?_110
        BL       Uart_Print
// 1689   Uart_Print("\r\n    |                     |");
        LDR      R0,??DataTable136_1
        BL       Uart_Print
// 1690   Uart_Print("\r\n    | Clock Settings Menu |");
        LDR      R0,??DataTable136_2
        BL       Uart_Print
// 1691   Uart_Print("\r\n    |_____________________|\n\n");  
        LDR      R0,??DataTable136_3
        BL       Uart_Print
// 1692   Uart_Print("\r    1 - Set Bulk 4 pF CAP.\n");
        ADR.N    R0,?_114
        BL       Uart_Print
// 1693   Uart_Print("\r    2 - Adjust COARSE TUNE\n");
        LDR      R0,??DataTable137
        BL       Uart_Print
// 1694   Uart_Print("\r    3 - Adjust FINE TUNE \n");
        LDR      R0,??DataTable137_1
        BL       Uart_Print
// 1695   Uart_Print("\r    p - Previous Menu\n");
        LDR      R0,??DataTable137_2
        BL       Uart_Print
// 1696   Uart_Print("\r\n    Please select an option:  ");
        LDR      R0,??DataTable137_3
        BL       Uart_Print
// 1697   return Uart_getchar(mUARTRxBuffer);
        LDR      R0,??DataTable135_3
        BL       Uart_getchar
        POP      {R1,R3}
        BX       R3               ;; return
// 1698 }

        SECTION `.text`:CODE:NOROOT(2)
        SECTION_TYPE SHT_PROGBITS, 0
        DATA
??DataTable133:
        DATA32
        DC32     ?_101

        SECTION `.text`:CODE:NOROOT(2)
        SECTION_TYPE SHT_PROGBITS, 0
        DATA
??DataTable133_1:
        DATA32
        DC32     ?_10

        SECTION `.text`:CODE:NOROOT(2)
        SECTION_TYPE SHT_PROGBITS, 0
        DATA
??DataTable133_2:
        DATA32
        DC32     ?_103

        SECTION `.text`:CODE:NOROOT(2)
        SECTION_TYPE SHT_PROGBITS, 0
        DATA
?_110:
        DC8 "\015\012     _____________________"
        DC8 0, 0, 0

        SECTION `.text`:CODE:NOROOT(2)
        SECTION_TYPE SHT_PROGBITS, 0
        DATA
?_114:
        DC8 "\015    1 - Set Bulk 4 pF CAP.\012"
        DC8 0, 0, 0
// 1699 
// 1700 /************************************************************************************
// 1701 * bulk_cap_menu
// 1702 *
// 1703 * The bulk_cap_menu shows the two possible bulk capacitor states and waits until
// 1704 * the user selects an option.
// 1705 *
// 1706 ************************************************************************************/
// 1707 

        SECTION `.text`:CODE:NOROOT(2)
        THUMB
// 1708 char bulk_cap_menu(void)
// 1709 {
bulk_cap_menu:
        PUSH     {R4,LR}
// 1710   Uart_Print("\r\n\nBulk 4 Capacitor Menu\n\n");
        Nop      
        ADR.N    R0,?_118
        BL       Uart_Print
// 1711   Uart_Print("\r\n   Current Bulk Capacitor State:");
        LDR      R0,??DataTable138
        BL       Uart_Print
// 1712   if(gEnable_c == u8BulkCapState){
        LDR      R4,??DataTable136
        LDRB     R0,[R4, #+22]
        CMP      R0,#+1
        BNE      ??bulk_cap_menu_0
// 1713     Uart_Print("  Enable\n\n");
        ADR.N    R0,?_119
        B        ??bulk_cap_menu_1
// 1714   }
// 1715   else{
// 1716     Uart_Print("  Disable\n\n");    
??bulk_cap_menu_0:
        LDR      R0,??DataTable139
??bulk_cap_menu_1:
        BL       Uart_Print
// 1717   }
// 1718   Uart_Print("\r   E - Enable Capacitor.\n");
        Nop      
        ADR.N    R0,?_121
        BL       Uart_Print
// 1719   Uart_Print("\r   D - Disable Capacitor\n");
        LDR      R0,??DataTable139_1
        BL       Uart_Print
// 1720   Uart_Print("\r   p - Previous Menu\n");
        LDR      R0,??DataTable139_2
        BL       Uart_Print
// 1721   Uart_Print("\r\nPlease select an option:  ");
        LDR      R0,??DataTable139_3
        BL       Uart_Print
// 1722   return Uart_getchar(mUARTRxBuffer);
        MOVS     R0,R4
        ADDS     R0,R0,#+32
        B.N      ??Subroutine3_0
// 1723 }

        SECTION `.text`:CODE:NOROOT(2)
        SECTION_TYPE SHT_PROGBITS, 0
        DATA
??DataTable134:
        DATA32
        DC32     ?_104

        SECTION `.text`:CODE:NOROOT(2)
        SECTION_TYPE SHT_PROGBITS, 0
        DATA
?_118:
        DC8 "\015\012\012Bulk 4 Capacitor Menu\012\012"
        DATA8
        DC8 0

        SECTION `.text`:CODE:NOROOT(2)
        SECTION_TYPE SHT_PROGBITS, 0
        DATA
?_119:
        DC8 "  Enable\012\012"
        DATA8
        DC8 0

        SECTION `.text`:CODE:NOROOT(2)
        SECTION_TYPE SHT_PROGBITS, 0
        DATA
?_121:
        DC8 "\015   E - Enable Capacitor.\012"
        DATA8
        DC8 0
// 1724 
// 1725 /************************************************************************************
// 1726 * channel_adjust
// 1727 *
// 1728 * This function updates the channel with the value selected by the user.
// 1729 *
// 1730 ************************************************************************************/
// 1731 

        SECTION `.text`:CODE:NOROOT(1)
        THUMB
// 1732 void channel_adjust(void){
channel_adjust:
        PUSH     {R3-R7,LR}
// 1733   char option, hexOption;
// 1734   CurrentOption = gRxTestMode_c;
        LDR      R4,??DataTable136
        MOVS     R0,#+2
        STRB     R0,[R4, #+19]
        LDR      R7,??DataTable140
// 1735   do{
// 1736     option = channel_menu();
??channel_adjust_0:
        BL       channel_menu
        MOVS     R5,R0
// 1737     hexOption = AsciitoHex(option);
        BL       AsciitoHex
        MOVS     R6,R0
// 1738     
// 1739     if(PreviousMenu != hexOption)
        CMP      R0,#+112
        BEQ      ??channel_adjust_1
// 1740     {
// 1741       MLMETestMode(SMAC_TEST_MODE_IDLE);
        MOVS     R0,#+0
        BL       MLMETestMode
// 1742       DelayUs(10);
        MOVS     R0,#+10
        BL       DelayUs
// 1743       if (gSuccess_c == MLMESetChannelRequest((channel_num_t)hexOption))
        MOVS     R0,R6
        BL       MLMESetChannelRequest
        CMP      R0,#+0
        BNE      ??channel_adjust_2
// 1744       {  
// 1745         u8TestModeChannel = (channel_num_t)hexOption;
        STRB     R6,[R4, #+17]
        B        ??channel_adjust_3
// 1746       }
// 1747       else
// 1748       {
// 1749         Uart_Print("  Invalid Option!!!");  
??channel_adjust_2:
        MOVS     R0,R7
        BL       Uart_Print
// 1750       }
// 1751       MLMETestMode(u8CurrentMode);
??channel_adjust_3:
        LDRB     R0,[R4, #+16]
        BL       MLMETestMode
// 1752       
// 1753     }
// 1754   }while(option != PreviousMenu);
??channel_adjust_1:
        CMP      R5,#+112
        BNE      ??channel_adjust_0
// 1755 }
        B.N      ??Subroutine5_0

        SECTION `.text`:CODE:NOROOT(2)
        SECTION_TYPE SHT_PROGBITS, 0
        DATA
??DataTable135:
        DATA32
        DC32     ?_108

        SECTION `.text`:CODE:NOROOT(2)
        SECTION_TYPE SHT_PROGBITS, 0
        DATA
??DataTable135_1:
        DATA32
        DC32     ?_109

        SECTION `.text`:CODE:NOROOT(2)
        SECTION_TYPE SHT_PROGBITS, 0
        DATA
??DataTable135_2:
        DATA32
        DC32     ?_102

        SECTION `.text`:CODE:NOROOT(2)
        SECTION_TYPE SHT_PROGBITS, 0
        DATA
??DataTable135_3:
        DATA32
        DC32     RX_msg+0x20
// 1756 
// 1757 /************************************************************************************
// 1758 * power_adjust
// 1759 *
// 1760 * This function change the power value to the power selected by the user in the
// 1761 * serial interface
// 1762 *
// 1763 ************************************************************************************/
// 1764 

        SECTION `.text`:CODE:NOROOT(2)
        THUMB
// 1765 void power_adjust(void){
power_adjust:
        PUSH     {R4-R6,LR}
// 1766   uint8_t u8TempPower;
// 1767   CurrentOption = gPower_c;
        LDR      R5,??DataTable136
        MOVS     R0,#+1
        STRB     R0,[R5, #+19]
// 1768   Uart_Print("\r\n     ___________________________\n");
        LDR      R4,??DataTable140_1
        MOVS     R0,R4
        BL       Uart_Print
// 1769   Uart_Print("\r    |                           |\n");
        MOVS     R0,R4
        ADDS     R0,R0,#+36
        BL       Uart_Print
// 1770   Uart_Print("\r    |   Power Adjustment Menu   |\n");
        MOVS     R0,R4
        ADDS     R0,R0,#+72
        BL       Uart_Print
// 1771   Uart_Print("\r    |___________________________|\n\n");
        MOVS     R0,R4
        ADDS     R0,R0,#+108
        BL       Uart_Print
// 1772   Uart_Print("\r    Current Power: ");
        LDR      R0,??DataTable140_2
        BL       Uart_Print
// 1773   Uart_PrintHex(&u8TestModePower, 1,gPrtHexNewLine_c);
        MOVS     R2,#+2
        MOVS     R1,#+1
        MOVS     R0,R5
        ADDS     R0,R0,#+18
        BL       Uart_PrintHex
// 1774 
// 1775   if(gPowerLevelLock_c)
// 1776   {
// 1777     Uart_Print("\r\nPlease enter the new Power, possible values 0x00 to 0x07 or 0x0C: ");
// 1778   }
// 1779   else
// 1780   {
// 1781     Uart_Print("\r\nPlease enter the new Power, 0x00 for minimum and to 0x11 for maximum: ");
        MOVS     R0,R4
        ADDS     R0,R0,#+148
        BL       Uart_Print
// 1782   } 
// 1783   
// 1784   Uart_getchar(mUARTRxBuffer);
        MOVS     R0,R5
        ADDS     R0,R0,#+32
        BL       Uart_getchar
// 1785   
// 1786   u8TempPower = (AsciitoHex(mUARTRxBuffer[0]));
        MOVS     R0,#+32
        LDRB     R0,[R5, R0]
        BL       AsciitoHex
        MOVS     R6,R0
// 1787     
// 1788   u8TempPower = (u8TempPower << 4);
// 1789   Uart_getchar(mUARTRxBuffer);
        MOVS     R0,R5
        ADDS     R0,R0,#+32
        BL       Uart_getchar
// 1790   u8TempPower |= AsciitoHex(mUARTRxBuffer[0]);  
        LSLS     R6,R6,#+4
        MOVS     R0,#+32
        LDRB     R0,[R5, R0]
        BL       AsciitoHex
        ORRS     R0,R0,R6
        MOVS     R6,R0
// 1791   
// 1792   
// 1793   if(gSuccess_c == MLMEPAOutputAdjust(u8TempPower))
        LSLS     R0,R0,#+24
        LSRS     R0,R0,#+24
        BL       MLMEPAOutputAdjust
        CMP      R0,#+0
        BNE      ??power_adjust_0
// 1794   {
// 1795     u8TestModePower = u8TempPower;
        STRB     R6,[R5, #+18]
// 1796     Uart_Print("\n");
        ADR      R0,??DataTable141  ;; "\n"
        B        ??power_adjust_1
// 1797   }
// 1798   else
// 1799   {
// 1800     Uart_Print("\r\n    Incorrect value!!!");  
??power_adjust_0:
        ADR.N    R0,?_127
        BL       Uart_Print
// 1801     Uart_Print("\r\n        On normal mode the value must be between 0x00 to 0x11");
        MOVS     R0,R4
        ADDS     R0,R0,#+224
        BL       Uart_Print
// 1802     Uart_Print("\r\n        When PA Lock mode is enable valid values are: 0x00 to 0x07 and 0x0C");
        MOVS     R0,#+144
        LSLS     R0,R0,#+1        ;; #+288
        ADDS     R0,R4,R0
??power_adjust_1:
        BL       Uart_Print
// 1803   }
// 1804 }
        POP      {R4-R6}
        POP      {R3}
        BX       R3               ;; return

        SECTION `.text`:CODE:NOROOT(2)
        SECTION_TYPE SHT_PROGBITS, 0
        DATA
??DataTable136:
        DATA32
        DC32     RX_msg

        SECTION `.text`:CODE:NOROOT(2)
        SECTION_TYPE SHT_PROGBITS, 0
        DATA
??DataTable136_1:
        DATA32
        DC32     ?_111

        SECTION `.text`:CODE:NOROOT(2)
        SECTION_TYPE SHT_PROGBITS, 0
        DATA
??DataTable136_2:
        DATA32
        DC32     ?_112

        SECTION `.text`:CODE:NOROOT(2)
        SECTION_TYPE SHT_PROGBITS, 0
        DATA
??DataTable136_3:
        DATA32
        DC32     ?_113

        SECTION `.text`:CODE:NOROOT(2)
        SECTION_TYPE SHT_PROGBITS, 0
        DATA
?_127:
        DC8 "\015\012    Incorrect value!!!"
        DC8 0, 0, 0
// 1805 
// 1806 /************************************************************************************
// 1807 * test_mode_rx_adjust
// 1808 *
// 1809 * In this function the current test mode is adjusted to the new value selected by the 
// 1810 * user in the serial interface.
// 1811 *
// 1812 ************************************************************************************/
// 1813 

        SECTION `.text`:CODE:NOROOT(1)
        THUMB
// 1814 void test_mode_rx_adjust(void)
// 1815 {
test_mode_rx_adjust:
        PUSH     {R3-R7,LR}
// 1816   char option;
// 1817   CurrentOption = gRxTestMode_c;
        LDR      R4,??DataTable141_1
        MOVS     R0,#+2
        STRB     R0,[R4, #+19]
        LDR      R7,??DataTable141_2
        MOVS     R5,#+0
// 1818   do{
// 1819     option = test_mode_rx_menu();
??test_mode_rx_adjust_0:
        BL       test_mode_rx_menu
        MOVS     R6,R0
// 1820     switch(option)
        CMP      R0,#+73
        BEQ      ??test_mode_rx_adjust_1
        CMP      R0,#+80
        BEQ      ??test_mode_rx_adjust_2
        CMP      R0,#+82
        BEQ      ??test_mode_rx_adjust_3
        CMP      R0,#+112
        BEQ      ??test_mode_rx_adjust_4
        CMP      R0,#+114
        BEQ      ??test_mode_rx_adjust_5
        B        ??test_mode_rx_adjust_6
// 1821     {
// 1822       case IdleTest:
// 1823         u8CurrentMode = SMAC_TEST_MODE_IDLE;
??test_mode_rx_adjust_1:
        STRB     R5,[R4, #+16]
// 1824         MLMETestMode(u8CurrentMode);
        MOVS     R0,#+0
        BL       MLMETestMode
// 1825         break;
        B        ??test_mode_rx_adjust_4
// 1826       case ReceptionTest:
// 1827         Uart_Print("\r\nPress Q to exit from Continuous Reception Mode");
??test_mode_rx_adjust_3:
        MOVS     R0,R7
        BL       Uart_Print
// 1828         Uart_Print("\r\nPress any key to start.....");
        LDR      R0,??DataTable141_3
        BL       Uart_Print
// 1829         Uart_getchar(mUARTRxBuffer);
        MOVS     R0,R4
        ADDS     R0,R0,#+32
        BL       Uart_getchar
// 1830         u8CurrentMode = SMAC_CONTINUOUS_RX;
        MOVS     R0,#+1
        STRB     R0,[R4, #+16]
// 1831         MLMETestMode(u8CurrentMode);
        BL       MLMETestMode
// 1832         MLMERXEnableRequest(&RX_msg, 0x0000200);
        MOVS     R1,#+128
        LSLS     R1,R1,#+2        ;; #+512
        MOVS     R0,R4
        BL       MLMERXEnableRequest
// 1833         do
// 1834         {
// 1835             (void)process_radio_msg();
??test_mode_rx_adjust_7:
        BL       process_radio_msg
// 1836             if(TRUE == gbDataIndicationFlag)
        LDRB     R0,[R4, #+23]
        CMP      R0,#+1
        BNE      ??test_mode_rx_adjust_8
// 1837             {
// 1838               gbDataIndicationFlag = FALSE;
        STRB     R5,[R4, #+23]
// 1839               process_incoming_msg();
        BL       process_incoming_msg
// 1840             }
// 1841           
// 1842 #if OTAP_ENABLED == TRUE
// 1843           if(gbOtapExecute)
// 1844           {
// 1845             OTAP_execute();        
// 1846           }
// 1847           else
// 1848 #endif
// 1849           {          
// 1850             if(is_rx_msg_final_state(RX_msg))
??test_mode_rx_adjust_8:
        LDRB     R0,[R4, #+0]
        LSRS     R0,R0,#+3
        CMP      R0,#+5
        BEQ      ??test_mode_rx_adjust_9
        CMP      R0,#+6
        BEQ      ??test_mode_rx_adjust_9
        CMP      R0,#+8
        BEQ      ??test_mode_rx_adjust_9
        CMP      R0,#+4
        BNE      ??test_mode_rx_adjust_10
// 1851             {
// 1852               RX_msg.u8BufSize = RX_SIZE;
??test_mode_rx_adjust_9:
        MOVS     R0,#+70
        STRB     R0,[R4, #+8]
// 1853               MLMERXEnableRequest(&RX_msg, 0x00000000);
        MOVS     R1,#+0
        MOVS     R0,R4
        BL       MLMERXEnableRequest
// 1854             }
// 1855           }
// 1856           Uart_Poll(mUARTRxBuffer);
??test_mode_rx_adjust_10:
        MOVS     R0,R4
        ADDS     R0,R0,#+32
        BL       Uart_Poll
// 1857           }
// 1858         while (mUARTRxBuffer[0] != Exit);   
        MOVS     R0,#+32
        LDRB     R0,[R4, R0]
        CMP      R0,#+81
        BNE      ??test_mode_rx_adjust_7
        B        ??test_mode_rx_adjust_4
// 1859         break;
// 1860         
// 1861       case PacketErrorRateTest:
// 1862         packet_error_rate_rx_test();
??test_mode_rx_adjust_2:
        BL       packet_error_rate_rx_test
// 1863         break;
        B        ??test_mode_rx_adjust_4
// 1864       case RangeTest:
// 1865         range_rx_test();
??test_mode_rx_adjust_5:
        BL       range_rx_test
// 1866         break;
        B        ??test_mode_rx_adjust_4
// 1867       case PreviousMenu:
// 1868         break; 
// 1869         
// 1870       default:
// 1871         Uart_Print("  Invalid Option!!!");
??test_mode_rx_adjust_6:
        LDR      R0,??DataTable140
        BL       Uart_Print
// 1872         break;
// 1873     }
// 1874   }while(option != PreviousMenu);
??test_mode_rx_adjust_4:
        CMP      R6,#+112
        BNE      ??test_mode_rx_adjust_0
// 1875 }
        B.N      ??Subroutine5_0

        SECTION `.text`:CODE:NOROOT(2)
        SECTION_TYPE SHT_PROGBITS, 0
        DATA
??DataTable137:
        DATA32
        DC32     ?_115

        SECTION `.text`:CODE:NOROOT(2)
        SECTION_TYPE SHT_PROGBITS, 0
        DATA
??DataTable137_1:
        DATA32
        DC32     ?_116

        SECTION `.text`:CODE:NOROOT(2)
        SECTION_TYPE SHT_PROGBITS, 0
        DATA
??DataTable137_2:
        DATA32
        DC32     ?_117

        SECTION `.text`:CODE:NOROOT(2)
        SECTION_TYPE SHT_PROGBITS, 0
        DATA
??DataTable137_3:
        DATA32
        DC32     ?_5+0xB8
// 1876 
// 1877 /************************************************************************************
// 1878 * test_mode_tx_adjust
// 1879 *
// 1880 * In this function the current test mode is adjusted to the new value selected by the 
// 1881 * user in the serial interface.
// 1882 *
// 1883 ************************************************************************************/

        SECTION `.text`:CODE:NOROOT(1)
        THUMB
// 1884 void test_mode_tx_adjust(void){
test_mode_tx_adjust:
        PUSH     {R4-R6,LR}
// 1885   char option;
// 1886   CurrentOption = gTxTestMode_c;
        LDR      R4,??DataTable141_1
        MOVS     R0,#+3
        STRB     R0,[R4, #+19]
        LDR      R5,??DataTable140
// 1887   do{
// 1888     option = test_mode_tx_menu();
??test_mode_tx_adjust_0:
        BL       test_mode_tx_menu
        MOVS     R6,R0
// 1889     switch(option)
        CMP      R0,#+73
        BEQ      ??test_mode_tx_adjust_1
        CMP      R0,#+80
        BEQ      ??test_mode_tx_adjust_2
        CMP      R0,#+84
        BEQ      ??test_mode_tx_adjust_3
        CMP      R0,#+112
        BEQ      ??test_mode_tx_adjust_4
        CMP      R0,#+114
        BEQ      ??test_mode_tx_adjust_5
        B        ??test_mode_tx_adjust_6
// 1890     {
// 1891       case IdleTest:
// 1892         u8CurrentMode = SMAC_TEST_MODE_IDLE;
??test_mode_tx_adjust_1:
        MOVS     R0,#+0
        STRB     R0,[R4, #+16]
// 1893         MLMETestMode(u8CurrentMode);
        BL       MLMETestMode
// 1894         break;
        B        ??test_mode_tx_adjust_4
// 1895       case TransmissionTest:  
// 1896         cont_transmission_test_adjust();
??test_mode_tx_adjust_3:
        BL       cont_transmission_test_adjust
// 1897         break;
        B        ??test_mode_tx_adjust_4
// 1898       case PacketErrorRateTest:
// 1899         packet_error_rate_tx_test();
??test_mode_tx_adjust_2:
        BL       packet_error_rate_tx_test
// 1900         break;
        B        ??test_mode_tx_adjust_4
// 1901       case RangeTest:
// 1902         range_tx_test();
??test_mode_tx_adjust_5:
        BL       range_tx_test
// 1903         break;
        B        ??test_mode_tx_adjust_4
// 1904       case PreviousMenu:
// 1905         break;      
// 1906       default:
// 1907         Uart_Print("  Invalid Option!!!");
??test_mode_tx_adjust_6:
        MOVS     R0,R5
        BL       Uart_Print
// 1908         break;
// 1909     }
// 1910   }while(option != PreviousMenu);
??test_mode_tx_adjust_4:
        CMP      R6,#+112
        BNE      ??test_mode_tx_adjust_0
// 1911 }
        POP      {R4-R6}
        POP      {R3}
        BX       R3               ;; return

        SECTION `.text`:CODE:NOROOT(2)
        SECTION_TYPE SHT_PROGBITS, 0
        DATA
??DataTable138:
        DATA32
        DC32     ?_31
// 1912 
// 1913 
// 1914 /************************************************************************************
// 1915 * tx_rx_select
// 1916 *
// 1917 * This function select between transmitter and receiver mode
// 1918 *
// 1919 ***********************************************************************************/

        SECTION `.text`:CODE:NOROOT(1)
        THUMB
// 1920 void tx_rx_select(void)
// 1921 {
tx_rx_select:
        PUSH     {R3-R5,LR}
        LDR      R4,??DataTable140
// 1922   char option;
// 1923   do
// 1924   {
// 1925     option = select_test_mode_menu();
??tx_rx_select_0:
        BL       select_test_mode_menu
        MOVS     R5,R0
// 1926     switch(option)
        CMP      R0,#+82
        BEQ      ??tx_rx_select_1
        CMP      R0,#+84
        BNE      ??tx_rx_select_2
// 1927     {
// 1928       case TransmissionTest:
// 1929         test_mode_tx_adjust();   
        BL       test_mode_tx_adjust
// 1930         break;
        B        ??tx_rx_select_3
// 1931         
// 1932       case ReceptionTest:
// 1933         test_mode_rx_adjust();     
??tx_rx_select_1:
        BL       test_mode_rx_adjust
// 1934         break;          
        B        ??tx_rx_select_3
// 1935         
// 1936       default:
// 1937         Uart_Print("  Invalid Option!!!");
??tx_rx_select_2:
        MOVS     R0,R4
        BL       Uart_Print
// 1938         break;
// 1939     }
// 1940   }while(option != PreviousMenu);
??tx_rx_select_3:
        CMP      R5,#+112
        BNE      ??tx_rx_select_0
// 1941 }
        POP      {R0,R4,R5}
        POP      {R3}
        BX       R3               ;; return

        SECTION `.text`:CODE:NOROOT(2)
        SECTION_TYPE SHT_PROGBITS, 0
        DATA
??DataTable139:
        DATA32
        DC32     ?_120

        SECTION `.text`:CODE:NOROOT(2)
        SECTION_TYPE SHT_PROGBITS, 0
        DATA
??DataTable139_1:
        DATA32
        DC32     ?_122

        SECTION `.text`:CODE:NOROOT(2)
        SECTION_TYPE SHT_PROGBITS, 0
        DATA
??DataTable139_2:
        DATA32
        DC32     ?_123

        SECTION `.text`:CODE:NOROOT(2)
        SECTION_TYPE SHT_PROGBITS, 0
        DATA
??DataTable139_3:
        DATA32
        DC32     ?_124
// 1942 
// 1943 
// 1944 
// 1945 /************************************************************************************
// 1946 * cont_transmission_test_adjust
// 1947 *
// 1948 * This function execute a specific transmission mode: modulated, unmodulated or 
// 1949 * the pseudo random binary sequence.
// 1950 *
// 1951 ***********************************************************************************/

        SECTION `.text`:CODE:NOROOT(1)
        THUMB
// 1952 void cont_transmission_test_adjust(void)
// 1953 {
cont_transmission_test_adjust:
        PUSH     {R4-R6,LR}
// 1954   char option;
// 1955   CurrentOption = gTxTestMode_c;
        LDR      R4,??DataTable141_1
        MOVS     R0,#+3
        STRB     R0,[R4, #+19]
        LDR      R5,??DataTable140
// 1956   
// 1957   do
// 1958   {
// 1959     option = test_transmission_menu();
??cont_transmission_test_adjust_0:
        BL       test_transmission_menu
        MOVS     R6,R0
// 1960     switch(option)
        CMP      R0,#+77
        BEQ      ??cont_transmission_test_adjust_1
        CMP      R0,#+83
        BEQ      ??cont_transmission_test_adjust_2
        CMP      R0,#+85
        BEQ      ??cont_transmission_test_adjust_3
        CMP      R0,#+112
        BEQ      ??cont_transmission_test_adjust_4
        B        ??cont_transmission_test_adjust_5
// 1961     {
// 1962       case PRBS9TxTest:
// 1963         pulse_prbs9_tx();
??cont_transmission_test_adjust_2:
        BL       pulse_prbs9_tx
// 1964         break;
        B        ??cont_transmission_test_adjust_4
// 1965       case ModulatedTxTest:
// 1966         u8CurrentMode = SMAC_TEST_MODE_CONTINUOUS_TX_MOD;
??cont_transmission_test_adjust_1:
        MOVS     R0,#+4
        B.N      ??cont_transmission_test_adjust_6
// 1967         MLMETestMode(u8CurrentMode);        
// 1968         break;        
// 1969       case UnmodulatedTxTest:
// 1970         u8CurrentMode = SMAC_TEST_MODE_CONTINUOUS_TX_NOMOD;
??cont_transmission_test_adjust_3:
        MOVS     R0,#+5
??cont_transmission_test_adjust_6:
        STRB     R0,[R4, #+16]
// 1971         MLMETestMode(u8CurrentMode);
        BL       MLMETestMode
// 1972         break;  
        B        ??cont_transmission_test_adjust_4
// 1973     case PreviousMenu:
// 1974         break;      
// 1975       default:
// 1976         Uart_Print("  Invalid Option!!!");
??cont_transmission_test_adjust_5:
        MOVS     R0,R5
        BL       Uart_Print
// 1977         break;
// 1978     }
// 1979   }while(option != PreviousMenu);
??cont_transmission_test_adjust_4:
        CMP      R6,#+112
        BNE      ??cont_transmission_test_adjust_0
// 1980 }
        POP      {R4-R6}
        POP      {R3}
        BX       R3               ;; return

        SECTION `.text`:CODE:NOROOT(2)
        SECTION_TYPE SHT_PROGBITS, 0
        DATA
??DataTable140:
        DATA32
        DC32     ?_125

        SECTION `.text`:CODE:NOROOT(2)
        SECTION_TYPE SHT_PROGBITS, 0
        DATA
??DataTable140_1:
        DATA32
        DC32     ?_32

        SECTION `.text`:CODE:NOROOT(2)
        SECTION_TYPE SHT_PROGBITS, 0
        DATA
??DataTable140_2:
        DATA32
        DC32     ?_126
// 1981 
// 1982 
// 1983 /************************************************************************************
// 1984 * pulse_prbs9_tx
// 1985 *
// 1986 * This function performs the transmission process for the pseudo random binary 
// 1987 * sequence.
// 1988 *
// 1989 ***********************************************************************************/
// 1990 

        SECTION `.text`:CODE:NOROOT(1)
        THUMB
// 1991 void pulse_prbs9_tx(void)
// 1992 {
pulse_prbs9_tx:
        PUSH     {R3-R7,LR}
// 1993   static prbs9_tx_states_t u8AppState;
// 1994   static uint16_t u16DutyCicleCounter;
// 1995   
// 1996 #if INTERFACE_TYPE == MANUAL 
// 1997   if(FALSE == gu8TestAlreadyStarted)
// 1998   {
// 1999        TX_msg.u8Status.msg_state = MSG_TX_ACTION_COMPLETE_SUCCESS;
// 2000       u8AppState = INIT_PRBS9_TX_ST;
// 2001   }  
// 2002 #endif  
// 2003 
// 2004 
// 2005 #if INTERFACE_TYPE == SERIAL
// 2006   u8CurrentMode = SMAC_TEST_MODE_PULSE_PRBS9_TX;
        MOVS     R7,#+1
        LDR      R4,??DataTable141_1
        STRB     R7,[R4, #+16]
// 2007   TX_msg.u8Status.msg_state = MSG_TX_ACTION_COMPLETE_SUCCESS;
        LDR      R5,??DataTable141_4
        LDRB     R0,[R5, #+0]
        LSLS     R0,R0,#+29
        LSRS     R0,R0,#+29
        MOVS     R1,#+32
        ORRS     R1,R1,R0
        STRB     R1,[R5, #+0]
// 2008   u8AppState =  INIT_PRBS9_TX_ST;
        MOVS     R6,#+0
        STRB     R6,[R5, #+16]
// 2009   MLMETestMode(u8CurrentMode);
        MOVS     R0,#+1
        BL       MLMETestMode
// 2010   Uart_Print("\r\nPress Q to exit from Transmission PRBS9 Mode");
        LDR      R0,??DataTable141_5
        BL       Uart_Print
// 2011   Uart_Print("\r\nPress any key to start.....");
        LDR      R0,??DataTable141_3
        BL       Uart_Print
// 2012   Uart_getchar(mUARTRxBuffer);
        MOVS     R0,R4
        ADDS     R0,R0,#+32
        BL       Uart_getchar
// 2013   do  
// 2014   {
// 2015 #endif        
// 2016         
// 2017     (void)process_radio_msg();
??pulse_prbs9_tx_0:
        BL       process_radio_msg
// 2018     switch(u8AppState)
        LDRB     R0,[R5, #+16]
        CMP      R0,#+0
        BEQ      ??pulse_prbs9_tx_1
        CMP      R0,#+1
        BEQ      ??pulse_prbs9_tx_2
        B        ??pulse_prbs9_tx_3
// 2019     {
// 2020       case INIT_PRBS9_TX_ST:
// 2021       {
// 2022         LoadPRBS9();
??pulse_prbs9_tx_1:
        BL       LoadPRBS9
// 2023         u16DutyCicleCounter = 0;
        STRH     R6,[R5, #+18]
// 2024         u8AppState = TRANSMIT_PRBS9_TX_ST;
        STRB     R7,[R5, #+16]
// 2025       }
// 2026       break;
        B        ??pulse_prbs9_tx_3
// 2027       
// 2028       case TRANSMIT_PRBS9_TX_ST:
// 2029       {
// 2030         if(is_tx_msg_final_state(TX_msg))
??pulse_prbs9_tx_2:
        LDRB     R0,[R5, #+0]
        LSRS     R0,R0,#+3
        CMP      R0,#+4
        BEQ      ??pulse_prbs9_tx_4
        CMP      R0,#+5
        BEQ      ??pulse_prbs9_tx_4
        CMP      R0,#+7
        BEQ      ??pulse_prbs9_tx_4
        CMP      R0,#+3
        BNE      ??pulse_prbs9_tx_3
// 2031         {
// 2032           u16DutyCicleCounter++;
??pulse_prbs9_tx_4:
        LDRH     R0,[R5, #+18]
        ADDS     R0,R0,#+1
        STRH     R0,[R5, #+18]
// 2033           if(u16DutyCicleCounter == DUTY_CICLE_TIME)
        LDR      R1,??DataTable142  ;; 0x79e
        LSLS     R0,R0,#+16
        LSRS     R0,R0,#+16
        CMP      R0,R1
        BNE      ??pulse_prbs9_tx_3
// 2034           {
// 2035             u16DutyCicleCounter = 0;
        STRH     R6,[R5, #+18]
// 2036             MCPSDataRequest(&TX_msg);
        MOVS     R0,R5
        BL       MCPSDataRequest
// 2037           }
// 2038         }
// 2039       }
// 2040       
// 2041       default:
// 2042       break;
// 2043     }
// 2044          
// 2045 #if INTERFACE_TYPE == SERIAL    
// 2046     Uart_Poll(mUARTRxBuffer);
??pulse_prbs9_tx_3:
        MOVS     R0,R4
        ADDS     R0,R0,#+32
        BL       Uart_Poll
// 2047   }while (mUARTRxBuffer[0] != Exit); 
        MOVS     R0,#+32
        LDRB     R0,[R4, R0]
        CMP      R0,#+81
        BNE      ??pulse_prbs9_tx_0
// 2048   u8CurrentMode = SMAC_TEST_MODE_IDLE;
        STRB     R6,[R4, #+16]
// 2049   MLMETestMode(u8CurrentMode);
        B.N      ?Subroutine2
// 2050 #endif
// 2051 
// 2052 #if INTERFACE_TYPE == MANUAL      
// 2053   gu8TestAlreadyStarted = TRUE;
// 2054 #endif
// 2055 }

        SECTION `.text`:CODE:NOROOT(2)
        SECTION_TYPE SHT_PROGBITS, 0
        DATA
??DataTable141:
        DATA8
        DC8      "\n",0x0,0x0

        SECTION `.text`:CODE:NOROOT(2)
        SECTION_TYPE SHT_PROGBITS, 0
        DATA
??DataTable141_1:
        DATA32
        DC32     RX_msg

        SECTION `.text`:CODE:NOROOT(2)
        SECTION_TYPE SHT_PROGBITS, 0
        DATA
??DataTable141_2:
        DATA32
        DC32     ?_39

        SECTION `.text`:CODE:NOROOT(2)
        SECTION_TYPE SHT_PROGBITS, 0
        DATA
??DataTable141_3:
        DATA32
        DC32     ?_128

        SECTION `.text`:CODE:NOROOT(2)
        SECTION_TYPE SHT_PROGBITS, 0
        DATA
??DataTable141_4:
        DATA32
        DC32     TX_msg

        SECTION `.text`:CODE:NOROOT(2)
        SECTION_TYPE SHT_PROGBITS, 0
        DATA
??DataTable141_5:
        DATA32
        DC32     ?_40

        SECTION `.bss`:DATA:REORDER:NOROOT(2)
        DATA
TX_msg:
        DS8 16
        DS8 1
        DS8 1
        DS8 2

        SECTION `.bss`:DATA:REORDER:NOROOT(2)
        DATA
ACK_msg:
        DS8 16

        SECTION `.bss`:DATA:REORDER:NOROOT(0)
        DATA
ManualModeOption:
        DS8 1

        SECTION `.bss`:DATA:REORDER:NOROOT(1)
        DATA
waiting_loops:
        DS8 2

        SECTION `.bss`:DATA:REORDER:NOROOT(0)
        DATA
init_flag:
        DS8 1

        SECTION `.bss`:DATA:REORDER:NOROOT(2)
        DATA
gu8SCIData:
        DS8 12

        SECTION `.bss`:DATA:REORDER:NOROOT(0)
        DATA
maxLQI:
        DS8 1
// 2056 
// 2057 /************************************************************************************
// 2058 * packet_error_rate_tx_test
// 2059 *
// 2060 * This function performs the packet error rate transmission process.
// 2061 *
// 2062 ***********************************************************************************/

        SECTION `.text`:CODE:NOROOT(1)
        THUMB
// 2063 void packet_error_rate_tx_test(void)
// 2064 {
packet_error_rate_tx_test:
        PUSH     {R3-R7,LR}
        SUB      SP,SP,#+32
// 2065   static per_tx_states_t u8AppState;
// 2066   static uint16_t u16MsgCount;
// 2067   static uint16_t u16DoneCount;
// 2068   uint32_t u32NumTransmissions;
// 2069 
// 2070 #if   INTERFACE_TYPE == SERIAL
// 2071   uint8_t u8InvalidCharFlag = FALSE;
// 2072 #endif
// 2073   
// 2074 #if   INTERFACE_TYPE == SERIAL
// 2075   uint8_t u8Count;
// 2076   uint8_t u8TempNumTx[5];
// 2077 #endif
// 2078   
// 2079   u32NumTransmissions = NUM_TRANSMISSIONS;
        LDR      R0,??DataTable142_1  ;; 0x3e7
        STR      R0,[SP, #+4]
// 2080 
// 2081 #if INTERFACE_TYPE == SERIAL
// 2082   u8AppState = IDLE_PER_TX_ST;   
        LDR      R7,??DataTable142_2
        MOVS     R0,#+0
        STRB     R0,[R7, #+28]
// 2083   u8CurrentMode = SMAC_TEST_MODE_PER_TX;
        MOVS     R0,#+2
        STRB     R0,[R7, #+16]
        LDR      R0,??DataTable142_3
        STR      R0,[SP, #+28]
        LDR      R0,??DataTable142_4
        STR      R0,[SP, #+24]
        LDR      R0,??DataTable142_5
        STR      R0,[SP, #+20]
// 2084   do{
// 2085 #endif
// 2086 
// 2087 #if INTERFACE_TYPE == MANUAL 
// 2088   if(FALSE == gu8TestAlreadyStarted)
// 2089   {
// 2090     clear_event(gu8TestModeEvents, TEST_START_EVENT);
// 2091     TX_msg.u8Status.msg_state = MSG_TX_ACTION_COMPLETE_SUCCESS;
// 2092     LEDs_TX_INIT(250);  
// 2093     u8AppState = INIT_PER_TX_ST;
// 2094     gu8TestAlreadyStarted = TRUE;
// 2095 #if (gLCDSupported_d) 
// 2096     LCD_WriteString_NormalFont(7,"                     ");
// 2097     LCD_WriteString_NormalFont(4,"PER Transmitting..");
// 2098 #endif    
// 2099   }
// 2100 #endif
// 2101     
// 2102     (void)process_radio_msg();
??packet_error_rate_tx_test_0:
        BL       process_radio_msg
// 2103     if(TRUE == gbDataIndicationFlag)
        LDRB     R0,[R7, #+23]
        CMP      R0,#+1
        BNE      ??packet_error_rate_tx_test_1
// 2104     {
// 2105       gbDataIndicationFlag = FALSE;
        MOVS     R0,#+0
        STRB     R0,[R7, #+23]
// 2106       process_incoming_msg();
        BL       process_incoming_msg
// 2107     }
// 2108     
// 2109 #if INTERFACE_TYPE == MANUAL    
// 2110     if (TRUE == gu8TestAlreadyStarted)
// 2111     {
// 2112 #endif      
// 2113     switch(u8AppState){
??packet_error_rate_tx_test_1:
        LDR      R0,??DataTable142_6
        LDRB     R0,[R0, #+0]
        LSRS     R2,R0,#+3
        MOVS     R1,#+4
        LDRB     R3,[R7, #+28]
        CMP      R3,#+0
        BEQ      ??packet_error_rate_tx_test_2
        CMP      R3,#+2
        BNE      .+4
        B        ??packet_error_rate_tx_test_3
        BCC      ??packet_error_rate_tx_test_4
        CMP      R3,#+4
        BNE      .+4
        B        ??packet_error_rate_tx_test_5
        BCS      .+4
        B        ??packet_error_rate_tx_test_6
        B        ??packet_error_rate_tx_test_7
// 2114       case IDLE_PER_TX_ST:
// 2115       {
// 2116 #if INTERFACE_TYPE == SERIAL          
// 2117         Uart_Print("\r\n    ****************************");
??packet_error_rate_tx_test_2:
        LDR      R0,??DataTable142_7
        BL       Uart_Print
// 2118         Uart_Print("\r\n    ** Packet Error Rate Test **");
        LDR      R0,??DataTable142_8
        BL       Uart_Print
// 2119         Uart_Print("\r\n    ****************************");
        LDR      R0,??DataTable142_7
        BL       Uart_Print
// 2120         Uart_Print("\r\nPress Q to exit from Packet Error Rate Test");
        LDR      R0,??DataTable143
        BL       Uart_Print
// 2121         Uart_Print("\r\nPress Enter. Packets to transmit: ");
        LDR      R0,??DataTable143_1
        BL       Uart_Print
// 2122         Uart_PrintShortDec((uint16_t)NUM_TRANSMISSIONS);
        LDR      R0,??DataTable142_1  ;; 0x3e7
        BL       Uart_PrintShortDec
        B        ??packet_error_rate_tx_test_8
// 2123         do
// 2124         {
// 2125          uint8_t i;
// 2126          uint8_t u8Shift;
// 2127           Uart_Print("\r\n\n  Number of packets in decimal: ");
// 2128           u8Count = 0;
// 2129           u8InvalidCharFlag = FALSE;
// 2130 
// 2131           u8TempNumTx[u8Count]= Uart_getchar(mUARTRxBuffer);
// 2132                     
// 2133           while((u8TempNumTx[u8Count]!= 0x0D) &&(u8Count < 5) && (u8TempNumTx[u8Count]!= Exit))
// 2134           { 
// 2135             if((0x3A < u8TempNumTx[u8Count]))
// 2136             {
// 2137               u8InvalidCharFlag = TRUE;
// 2138             }
// 2139             else if(0x30 > u8TempNumTx[u8Count])
// 2140             {
// 2141               u8InvalidCharFlag = TRUE;
// 2142             }
// 2143 
// 2144             u8Count ++;
// 2145             u8TempNumTx[u8Count]= Uart_getchar(mUARTRxBuffer);
// 2146           }
// 2147           if(u8TempNumTx[u8Count] == 0x0D)
// 2148           { 
// 2149             if(0 != u8Count)
// 2150             {
// 2151               u8Count--;
// 2152             }
// 2153             else
// 2154             {
// 2155               u8InvalidCharFlag = TRUE;
// 2156             }   
// 2157             Uart_getchar(mUARTRxBuffer);
// 2158            }
// 2159           
// 2160           if(Exit == u8TempNumTx[u8Count])
// 2161           {
// 2162             return;
// 2163           }
// 2164 
// 2165           u32NumTransmissions = 0;
// 2166           u8Shift = u8Count;
// 2167           /*To validate 0-9, a-f and A-F values*/
// 2168 
// 2169           for(i = 0; i <= u8Count; i++)
// 2170           {
// 2171             u32NumTransmissions += (AsciitoHex(u8TempNumTx[i]) * u16TenPower[u8Shift]);
// 2172             u8Shift--;
// 2173           }
// 2174           
// 2175           if(MAX_NUM_TRANSMISSION < u32NumTransmissions)
// 2176           {
// 2177             Uart_Print("\r\n  Value out of range, please try again.");
// 2178           }
// 2179           
// 2180           if(u8InvalidCharFlag == TRUE)
// 2181           {
// 2182             Uart_Print("\r\n  Invalid characters, please use only numbers.");
??packet_error_rate_tx_test_9:
        LDR      R0,??DataTable143_2
        BL       Uart_Print
// 2183           }
??packet_error_rate_tx_test_8:
        LDR      R0,??DataTable143_3
        BL       Uart_Print
        MOVS     R5,#+0
        MOVS     R4,#+0
        ADD      R6,SP,#+8
        MOVS     R0,R7
        ADDS     R0,R0,#+32
        BL       Uart_getchar
        STRB     R0,[R6, #+0]
??packet_error_rate_tx_test_10:
        LDRB     R0,[R6, R5]
        MOVS     R1,#+1
        STR      R1,[SP, #+16]
        CMP      R0,#+13
        BNE      .+4
        B        ??packet_error_rate_tx_test_11
        CMP      R5,#+4
        BLE      .+4
        B        ??packet_error_rate_tx_test_12
        CMP      R0,#+81
        BEQ      ??packet_error_rate_tx_test_13
        CMP      R0,#+59
        BGE      ??packet_error_rate_tx_test_14
        CMP      R0,#+48
        BGE      ??packet_error_rate_tx_test_15
??packet_error_rate_tx_test_14:
        MOVS     R4,#+1
??packet_error_rate_tx_test_15:
        ADDS     R5,R5,#+1
        LSLS     R5,R5,#+24
        LSRS     R5,R5,#+24
        MOVS     R0,R7
        ADDS     R0,R0,#+32
        BL       Uart_getchar
        STRB     R0,[R6, R5]
        B        ??packet_error_rate_tx_test_10
??packet_error_rate_tx_test_16:
        MOVS     R0,#+1
        MOV      R1,SP
        STRB     R0,[R1, #+0]
??packet_error_rate_tx_test_17:
        MOVS     R0,R7
        ADDS     R0,R0,#+32
        BL       Uart_getchar
??packet_error_rate_tx_test_18:
        ADD      R0,SP,#+8
        LDRB     R0,[R0, R5]
        CMP      R0,#+81
??packet_error_rate_tx_test_13:
        BNE      .+4
        B        ??packet_error_rate_tx_test_19
        MOVS     R4,#+0
        MOVS     R6,#+0
        STR      R5,[SP, #+4]
        B        ??packet_error_rate_tx_test_20
??packet_error_rate_tx_test_21:
        ADD      R1,SP,#+8
        LDRB     R0,[R1, R0]
        BL       AsciitoHex
        LDR      R1,[SP, #+28]
        LSLS     R2,R5,#+24
        LSRS     R2,R2,#+23
        LDRH     R1,[R1, R2]
        MULS     R0,R1,R0
        ADDS     R4,R4,R0
        SUBS     R5,R5,#+1
        ADDS     R6,R6,#+1
??packet_error_rate_tx_test_20:
        LSLS     R0,R6,#+24
        LSRS     R0,R0,#+24
        LDR      R1,[SP, #+4]
        CMP      R1,R0
        BGE      ??packet_error_rate_tx_test_21
        STR      R4,[SP, #+4]
        LDR      R4,??DataTable143_4  ;; 0xc351
        LDR      R0,[SP, #+4]
        CMP      R0,R4
        BCC      ??packet_error_rate_tx_test_22
        LDR      R0,??DataTable143_5
        BL       Uart_Print
??packet_error_rate_tx_test_22:
        MOV      R0,SP
        LDRB     R0,[R0, #+0]
        CMP      R0,#+0
        BNE      ??packet_error_rate_tx_test_9
// 2184         }
// 2185         while((MAX_NUM_TRANSMISSION < u32NumTransmissions) || (TRUE == u8InvalidCharFlag));
        LDR      R0,[SP, #+4]
        CMP      R0,R4
        BCS      ??packet_error_rate_tx_test_8
// 2186         
// 2187 #endif         
// 2188          u8AppState = INIT_PER_TX_ST;
        LDR      R0,[SP, #+16]
        B        ??packet_error_rate_tx_test_23
// 2189       }
// 2190       break;
// 2191       case INIT_PER_TX_ST:
// 2192       {
// 2193         uint8_t i;
// 2194         uint8_t u8Count = 4;
// 2195         TX_msg.u8Status.msg_state = MSG_TX_ACTION_COMPLETE_SUCCESS;
??packet_error_rate_tx_test_4:
        LDR      R2,??DataTable142_6
        LSLS     R0,R0,#+29
        LSRS     R0,R0,#+29
        MOVS     R3,#+32
        ORRS     R3,R3,R0
        STRB     R3,[R2, #+0]
// 2196         TX_msg.pu8Buffer->u8Data[0] = (uint8_t)(u32NumTransmissions >> 8);
        LDR      R0,[SP, #+4]
        LSRS     R0,R0,#+8
        LDR      R3,[R2, #+4]
        STRB     R0,[R3, #+2]
// 2197         TX_msg.pu8Buffer->u8Data[1] = (uint8_t)u32NumTransmissions;
        LDR      R0,[SP, #+4]
        LDR      R3,[R2, #+4]
        STRB     R0,[R3, #+3]
// 2198         for(i=0; i<(sizeof(ku8ExpectedString)/sizeof(uint8_t)); i++)
        MOVS     R3,#+0
        MOVS     R4,#+0
// 2199         {
// 2200           TX_msg.pu8Buffer->u8Data[u8Count] = ku8ExpectedString[i];
??packet_error_rate_tx_test_24:
        LDR      R0,[SP, #+24]
        LSLS     R5,R4,#+24
        LSRS     R5,R5,#+24
        LDRB     R0,[R0, R5]
        LDR      R5,[R2, #+4]
        LSLS     R6,R1,#+24
        LSRS     R6,R6,#+24
        ADDS     R5,R5,R6
        STRB     R0,[R5, #+2]
// 2201           u8Count ++;
        ADDS     R1,R1,#+1
// 2202         }
        ADDS     R4,R4,#+1
        LSLS     R0,R4,#+24
        LSRS     R0,R0,#+24
        CMP      R0,#+16
        BCC      ??packet_error_rate_tx_test_24
// 2203 
// 2204         u16MsgCount = 0;
        STR      R3,[R7, #+48]
// 2205         u16DoneCount = 0;
// 2206         u8AppState = TRANSMITING_PER_TX_ST;
        MOVS     R0,#+2
        B        ??packet_error_rate_tx_test_23
// 2207       }
// 2208       break;
// 2209       case TRANSMITING_PER_TX_ST:
// 2210       {
// 2211         if(is_tx_msg_final_state(TX_msg))
??packet_error_rate_tx_test_3:
        LDR      R4,??DataTable142_6
        CMP      R2,#+4
        BEQ      ??packet_error_rate_tx_test_25
        CMP      R2,#+5
        BEQ      ??packet_error_rate_tx_test_25
        CMP      R2,#+7
        BEQ      ??packet_error_rate_tx_test_25
        CMP      R2,#+3
        BNE      ??packet_error_rate_tx_test_7
// 2212         {
// 2213           if(u32NumTransmissions > u16MsgCount)
??packet_error_rate_tx_test_25:
        LDRH     R0,[R7, #+48]
        LDR      R2,[SP, #+4]
        CMP      R0,R2
        BCS      ??packet_error_rate_tx_test_26
// 2214           {
// 2215             TX_msg.pu8Buffer->u8Data[2] = (uint8_t)(u16MsgCount >> 8);
        LSRS     R1,R0,#+8
        LDR      R2,[R4, #+4]
        STRB     R1,[R2, #+4]
// 2216             TX_msg.pu8Buffer->u8Data[3] = (uint8_t)u16MsgCount;
        LDR      R1,[R4, #+4]
        STRB     R0,[R1, #+5]
// 2217             TX_msg.u8BufSize = 4 + (sizeof(ku8ExpectedString)/sizeof(uint8_t));
        MOVS     R0,#+20
        STRB     R0,[R4, #+8]
// 2218 #if INTERFACE_TYPE == SERIAL          
// 2219             DelayMs(14);
        MOVS     R0,#+14
        BL       DelayMs
// 2220 #else
// 2221             DelayMs(5);
// 2222 #endif            
// 2223 
// 2224             MCPSDataRequest(&TX_msg);
        MOVS     R0,R4
        BL       MCPSDataRequest
// 2225             u16MsgCount++;
        LDRH     R0,[R7, #+48]
        ADDS     R0,R0,#+1
        STRH     R0,[R7, #+48]
        B        ??packet_error_rate_tx_test_7
// 2226           }
// 2227           else
// 2228           {
// 2229             uint8_t i;
// 2230             for(i=0; i<(sizeof(ku8DoneStr)/sizeof(uint8_t)); i++)
??packet_error_rate_tx_test_26:
        MOVS     R0,#+0
// 2231             {
// 2232               TX_msg.pu8Buffer->u8Data[i] = ku8DoneStr[i];
??packet_error_rate_tx_test_27:
        LDR      R1,[SP, #+20]
        LDRB     R1,[R1, R0]
        LDR      R2,[R4, #+4]
        ADDS     R2,R2,R0
        STRB     R1,[R2, #+2]
// 2233             }
        ADDS     R0,R0,#+1
        CMP      R0,#+4
        BCC      ??packet_error_rate_tx_test_27
// 2234             u8AppState = DONE_PER_TX_ST;
        MOVS     R0,#+3
        B        ??packet_error_rate_tx_test_23
// 2235           }
// 2236         }   
// 2237       }  
// 2238       break;
// 2239       
// 2240       case DONE_PER_TX_ST:
// 2241       {
// 2242         if(NUM_DONE_TX >= u16DoneCount)
??packet_error_rate_tx_test_6:
        LDRH     R0,[R7, #+50]
        CMP      R0,#+16
        BGE      ??packet_error_rate_tx_test_28
// 2243         {
// 2244           if(is_tx_msg_final_state(TX_msg))
        CMP      R2,#+4
        BEQ      ??packet_error_rate_tx_test_29
        CMP      R2,#+5
        BEQ      ??packet_error_rate_tx_test_30
        CMP      R2,#+7
        BEQ      ??packet_error_rate_tx_test_30
        CMP      R2,#+3
        BNE      ??packet_error_rate_tx_test_7
        B        ??packet_error_rate_tx_test_30
// 2245           {
// 2246             if(MSG_TX_ACTION_COMPLETE_SUCCESS == TX_msg.u8Status.msg_state)
// 2247               u16DoneCount++;
??packet_error_rate_tx_test_29:
        ADDS     R0,R0,#+1
        STRH     R0,[R7, #+50]
// 2248             TX_msg.u8BufSize = (sizeof(ku8DoneStr)/sizeof(uint8_t));
??packet_error_rate_tx_test_30:
        LDR      R4,??DataTable142_6
        STRB     R1,[R4, #+8]
// 2249             DelayMs(14);
        MOVS     R0,#+14
        BL       DelayMs
// 2250             MCPSDataRequest(&TX_msg);
        MOVS     R0,R4
        BL       MCPSDataRequest
        B        ??packet_error_rate_tx_test_7
// 2251           }
// 2252         }
// 2253         else
// 2254         {
// 2255           u8AppState = FINISH_PER_TX_ST;
??packet_error_rate_tx_test_28:
        STRB     R1,[R7, #+28]
        B        ??packet_error_rate_tx_test_7
// 2256         }
// 2257       }
// 2258       break;
// 2259       
// 2260       case FINISH_PER_TX_ST:
// 2261         u8AppState = IDLE_PER_TX_ST;
??packet_error_rate_tx_test_5:
        MOVS     R0,#+0
??packet_error_rate_tx_test_23:
        STRB     R0,[R7, #+28]
// 2262 #if INTERFACE_TYPE == MANUAL                
// 2263         gu8TestAlreadyStarted = FALSE;
// 2264 #endif        
// 2265  
// 2266         break;
// 2267       
// 2268       default:
// 2269       {
// 2270       }
// 2271       break;
// 2272     }
// 2273 
// 2274 #if INTERFACE_TYPE == MANUAL        
// 2275   }
// 2276 #endif
// 2277   
// 2278 #if INTERFACE_TYPE == SERIAL    
// 2279     Uart_Poll(mUARTRxBuffer);
??packet_error_rate_tx_test_7:
        MOVS     R0,R7
        ADDS     R0,R0,#+32
        BL       Uart_Poll
// 2280   }while (mUARTRxBuffer[0] != Exit); 
        MOVS     R0,#+32
        LDRB     R0,[R7, R0]
        CMP      R0,#+81
        BEQ      .+4
        B        ??packet_error_rate_tx_test_0
// 2281   u8CurrentMode = SMAC_TEST_MODE_IDLE;
        MOVS     R0,#+0
        STRB     R0,[R7, #+16]
// 2282   MLMETestMode(u8CurrentMode);
        BL       MLMETestMode
// 2283 #endif
// 2284 
// 2285   
// 2286 }
??packet_error_rate_tx_test_19:
        ADD      SP,SP,#+36
        POP      {R4-R7}
        POP      {R3}
        BX       R3               ;; return
??packet_error_rate_tx_test_11:
        MOV      R0,SP
        STRB     R4,[R0, #+0]
        CMP      R5,#+0
        BNE      .+4
        B        ??packet_error_rate_tx_test_16
        SUBS     R5,R5,#+1
        LSLS     R5,R5,#+24
        LSRS     R5,R5,#+24
        B        ??packet_error_rate_tx_test_17
??packet_error_rate_tx_test_12:
        MOV      R0,SP
        STRB     R4,[R0, #+0]
        B        ??packet_error_rate_tx_test_18

        SECTION `.text`:CODE:NOROOT(2)
        SECTION_TYPE SHT_PROGBITS, 0
        DATA
??DataTable142:
        DATA32
        DC32     0x79e

        SECTION `.text`:CODE:NOROOT(2)
        SECTION_TYPE SHT_PROGBITS, 0
        DATA
??DataTable142_1:
        DATA32
        DC32     0x3e7

        SECTION `.text`:CODE:NOROOT(2)
        SECTION_TYPE SHT_PROGBITS, 0
        DATA
??DataTable142_2:
        DATA32
        DC32     RX_msg

        SECTION `.text`:CODE:NOROOT(2)
        SECTION_TYPE SHT_PROGBITS, 0
        DATA
??DataTable142_3:
        DATA32
        DC32     u16TenPower

        SECTION `.text`:CODE:NOROOT(2)
        SECTION_TYPE SHT_PROGBITS, 0
        DATA
??DataTable142_4:
        DATA32
        DC32     ku8ExpectedString

        SECTION `.text`:CODE:NOROOT(2)
        SECTION_TYPE SHT_PROGBITS, 0
        DATA
??DataTable142_5:
        DATA32
        DC32     ku8DoneStr

        SECTION `.text`:CODE:NOROOT(2)
        SECTION_TYPE SHT_PROGBITS, 0
        DATA
??DataTable142_6:
        DATA32
        DC32     TX_msg

        SECTION `.text`:CODE:NOROOT(2)
        SECTION_TYPE SHT_PROGBITS, 0
        DATA
??DataTable142_7:
        DATA32
        DC32     ?_41

        SECTION `.text`:CODE:NOROOT(2)
        SECTION_TYPE SHT_PROGBITS, 0
        DATA
??DataTable142_8:
        DATA32
        DC32     ?_41+0x24
// 2287 
// 2288 /************************************************************************************
// 2289 * packet_error_rate_rx_test
// 2290 *
// 2291 * This function performs the packet error rate reception process.
// 2292 *
// 2293 ***********************************************************************************/

        SECTION `.text`:CODE:NOROOT(1)
        THUMB
// 2294 void packet_error_rate_rx_test(void)
// 2295 {
packet_error_rate_rx_test:
        PUSH     {R3-R7,LR}
// 2296   static per_rx_states_t u8AppState;
// 2297 
// 2298 #if INTERFACE_TYPE == MANUAL 
// 2299   if(FALSE == gu8TestAlreadyStarted)
// 2300   {  
// 2301     RX_msg.u8Status.msg_state = MSG_RX_ACTION_COMPLETE_SUCCESS;
// 2302     LEDs_RX_INIT(250);  
// 2303 
// 2304 
// 2305 #if (gLCDSupported_d) 
// 2306     LCD_WriteString_NormalFont(7,"                     ");
// 2307     LCD_WriteString_NormalFont(4," PER Listening..");
// 2308 #endif
// 2309     u8AppState = INIT_PER_RX_ST;
// 2310     gu8TestAlreadyStarted = TRUE;
// 2311   }
// 2312 #endif
// 2313   
// 2314 
// 2315 #if INTERFACE_TYPE == SERIAL
// 2316   u8CurrentMode = SMAC_TEST_MODE_PER_RX;
        LDR      R4,??DataTable144
        MOVS     R0,#+2
        STRB     R0,[R4, #+16]
// 2317   RX_msg.u8Status.msg_state = MSG_RX_ACTION_COMPLETE_SUCCESS;
        LDRB     R0,[R4, #+0]
        LSLS     R0,R0,#+29
        LSRS     R0,R0,#+29
        MOVS     R1,#+40
        ORRS     R1,R1,R0
        STRB     R1,[R4, #+0]
// 2318   Uart_Print("\r\n    ****************************");
        LDR      R7,??DataTable144_1
        MOVS     R0,R7
        BL       Uart_Print
// 2319   Uart_Print("\r\n    ** Packet Error Rate Test **");
        MOVS     R0,R7
        ADDS     R0,R0,#+36
        BL       Uart_Print
// 2320   Uart_Print("\r\n    ****************************");
        MOVS     R0,R7
        BL       Uart_Print
// 2321   Uart_Print("\r\nPress Q to exit from Packet Error Rate Test");
        MOVS     R0,R7
        ADDS     R0,R0,#+72
        BL       Uart_Print
// 2322   Uart_Print("\r\nPress any key to start.....");
        LDR      R0,??DataTable144_2
        BL       Uart_Print
// 2323   Uart_getchar(mUARTRxBuffer);
        MOVS     R0,R4
        ADDS     R0,R0,#+32
        BL       Uart_getchar
// 2324   u8AppState = INIT_PER_RX_ST;
        MOVS     R0,#+1
        STRB     R0,[R4, #+29]
        MOVS     R5,#+0
        MOVS     R6,#+3
// 2325   do{
// 2326 #endif    
// 2327     
// 2328 #if INTERFACE_TYPE == MANUAL    
// 2329 
// 2330 
// 2331   if (TRUE == gu8TestAlreadyStarted)
// 2332   {
// 2333 #endif      
// 2334       (void)process_radio_msg();
??packet_error_rate_rx_test_0:
        BL       process_radio_msg
// 2335       if(TRUE == gbDataIndicationFlag)
        LDRB     R0,[R4, #+23]
        CMP      R0,#+1
        BNE      ??packet_error_rate_rx_test_1
// 2336       {
// 2337         gbDataIndicationFlag = FALSE;
        STRB     R5,[R4, #+23]
// 2338         process_incoming_msg();
        BL       process_incoming_msg
// 2339         
// 2340         
// 2341         
// 2342         
// 2343       }
// 2344     
// 2345 #if OTAP_ENABLED == TRUE
// 2346     if(gbOtapExecute)
// 2347     {
// 2348       OTAP_execute();        
// 2349     }
// 2350     else
// 2351 #endif
// 2352     {          
// 2353   
// 2354       switch(u8AppState){
??packet_error_rate_rx_test_1:
        LDRB     R0,[R4, #+0]
        LSRS     R0,R0,#+3
        LDRB     R1,[R4, #+29]
        CMP      R1,#+1
        BEQ      ??packet_error_rate_rx_test_2
        BCC      ??packet_error_rate_rx_test_3
        CMP      R1,#+3
        BEQ      ??packet_error_rate_rx_test_4
        BCC      ??packet_error_rate_rx_test_5
        CMP      R1,#+4
        BEQ      ??packet_error_rate_rx_test_6
        B        ??packet_error_rate_rx_test_3
// 2355         case IDLE_PER_RX_ST:
// 2356         {
// 2357           // Do nothing when idle
// 2358         }
// 2359         break;
// 2360         case INIT_PER_RX_ST:
// 2361         {
// 2362 #if INTERFACE_TYPE == SERIAL        
// 2363           Uart_Print("\r\n\nThe RX radio is now listening...");
??packet_error_rate_rx_test_2:
        MOVS     R0,#+146
        LSLS     R0,R0,#+1        ;; #+292
        ADDS     R0,R7,R0
        BL       Uart_Print
// 2364 #endif       
// 2365           u8AppState = LISTEN_PER_RX_ST;
        STRB     R6,[R4, #+29]
// 2366           
// 2367           
// 2368         }
// 2369         break;
        B        ??packet_error_rate_rx_test_3
// 2370         case WAITING_PER_RX_ST:
// 2371         {
// 2372           if(is_rx_msg_final_state(RX_msg))
??packet_error_rate_rx_test_5:
        CMP      R0,#+5
        BEQ      ??packet_error_rate_rx_test_7
        CMP      R0,#+6
        BEQ      ??packet_error_rate_rx_test_7
        CMP      R0,#+8
        BEQ      ??packet_error_rate_rx_test_7
        CMP      R0,#+4
        BNE      ??packet_error_rate_rx_test_8
// 2373           {
// 2374             u8AppState = LISTEN_PER_RX_ST;
??packet_error_rate_rx_test_7:
        STRB     R6,[R4, #+29]
// 2375           }
// 2376           if(gu32PerRxEvents & PER_DONE_MSG_EVNT)
??packet_error_rate_rx_test_8:
        MOVS     R0,#+56
        LDRB     R0,[R4, R0]
        LSLS     R0,R0,#+28
        BPL      ??packet_error_rate_rx_test_3
// 2377           {
// 2378             gu32PerRxEvents = PER_NO_EVENT;
        STR      R5,[R4, #+56]
// 2379             u8AppState = FINISH_PER_RX_ST;
        MOVS     R0,#+4
        B        ??packet_error_rate_rx_test_9
// 2380           }
// 2381         }
// 2382         break;
// 2383         case LISTEN_PER_RX_ST:
// 2384         {
// 2385           if(is_rx_msg_final_state(RX_msg))
??packet_error_rate_rx_test_4:
        CMP      R0,#+5
        BEQ      ??packet_error_rate_rx_test_10
        CMP      R0,#+6
        BEQ      ??packet_error_rate_rx_test_10
        CMP      R0,#+8
        BEQ      ??packet_error_rate_rx_test_10
        CMP      R0,#+4
        BNE      ??packet_error_rate_rx_test_3
// 2386           {
// 2387             RX_msg.u8BufSize = PER_RX_SIZE;
??packet_error_rate_rx_test_10:
        MOVS     R0,#+24
        STRB     R0,[R4, #+8]
// 2388             MLMERXEnableRequest(&RX_msg, 0x00000000);
        MOVS     R1,#+0
        MOVS     R0,R4
        BL       MLMERXEnableRequest
// 2389             u8AppState = WAITING_PER_RX_ST;
        MOVS     R0,#+2
        B        ??packet_error_rate_rx_test_9
// 2390           }
// 2391         }
// 2392         break;
// 2393         case FINISH_PER_RX_ST:
// 2394         {
// 2395           u8AppState = INIT_PER_RX_ST;
??packet_error_rate_rx_test_6:
        MOVS     R0,#+1
??packet_error_rate_rx_test_9:
        STRB     R0,[R4, #+29]
// 2396 #if INTERFACE_TYPE == MANUAL 
// 2397           LED_SetHex((uint8_t)(c_test_num.u8Thousands));
// 2398           DelayMs(gTotalPacketsDelay_d);
// 2399           LED_TurnOffAllLeds();
// 2400           DelayMs(gTotalPacketsDelay_d);
// 2401           LED_SetHex((uint8_t)(c_test_num.u8Houndreds));
// 2402           DelayMs(gTotalPacketsDelay_d);
// 2403           LED_TurnOffAllLeds();
// 2404           DelayMs(gTotalPacketsDelay_d);
// 2405           LED_SetHex((uint8_t)(c_test_num.u8Tens));
// 2406           DelayMs(gTotalPacketsDelay_d);
// 2407           LED_TurnOffAllLeds();
// 2408           DelayMs(gTotalPacketsDelay_d);
// 2409           LED_SetHex((uint8_t)(c_test_num.u8Units));
// 2410           DelayMs(gTotalPacketsDelay_d);
// 2411           gu8TestAlreadyStarted = FALSE;
// 2412 #endif        
// 2413         }
// 2414         break;
// 2415         default:
// 2416         {
// 2417         }
// 2418         break;
// 2419       }
// 2420     }  
// 2421 #if INTERFACE_TYPE == MANUAL        
// 2422   }
// 2423 #endif
// 2424   
// 2425 #if INTERFACE_TYPE == SERIAL    
// 2426     Uart_Poll(mUARTRxBuffer);
??packet_error_rate_rx_test_3:
        MOVS     R0,R4
        ADDS     R0,R0,#+32
        BL       Uart_Poll
// 2427   }while (mUARTRxBuffer[0] != Exit);  
        MOVS     R0,#+32
        LDRB     R0,[R4, R0]
        CMP      R0,#+81
        BNE      ??packet_error_rate_rx_test_0
// 2428   
// 2429   u8CurrentMode = SMAC_TEST_MODE_IDLE;
        STRB     R5,[R4, #+16]
// 2430   MLMETestMode(u8CurrentMode);
        REQUIRE ?Subroutine2
        ;; // Fall through to label ?Subroutine2
// 2431 #endif
// 2432   
// 2433 }

        SECTION `.text`:CODE:NOROOT(1)
        THUMB
?Subroutine2:
        MOVS     R0,#+0
??Subroutine2_0:
        BL       MLMETestMode
        REQUIRE ??Subroutine5_0
        ;; // Fall through to label ??Subroutine5_0

        SECTION `.text`:CODE:NOROOT(1)
        THUMB
??Subroutine5_0:
        POP      {R0,R4-R7}
        POP      {R3}
        BX       R3               ;; return

        SECTION `.text`:CODE:NOROOT(2)
        SECTION_TYPE SHT_PROGBITS, 0
        DATA
??DataTable143:
        DATA32
        DC32     ?_41+0x48

        SECTION `.text`:CODE:NOROOT(2)
        SECTION_TYPE SHT_PROGBITS, 0
        DATA
??DataTable143_1:
        DATA32
        DC32     ?_41+0x78

        SECTION `.text`:CODE:NOROOT(2)
        SECTION_TYPE SHT_PROGBITS, 0
        DATA
??DataTable143_2:
        DATA32
        DC32     ?_41+0xF0

        SECTION `.text`:CODE:NOROOT(2)
        SECTION_TYPE SHT_PROGBITS, 0
        DATA
??DataTable143_3:
        DATA32
        DC32     ?_41+0xA0

        SECTION `.text`:CODE:NOROOT(2)
        SECTION_TYPE SHT_PROGBITS, 0
        DATA
??DataTable143_4:
        DATA32
        DC32     0xc351

        SECTION `.text`:CODE:NOROOT(2)
        SECTION_TYPE SHT_PROGBITS, 0
        DATA
??DataTable143_5:
        DATA32
        DC32     ?_41+0xC4
// 2434 
// 2435 /************************************************************************************
// 2436 * range_rx_test
// 2437 *
// 2438 * This function performs the range reception process.
// 2439 *
// 2440 ***********************************************************************************/

        SECTION `.text`:CODE:NOROOT(1)
        THUMB
// 2441 void range_rx_test(void)
// 2442 {
range_rx_test:
        PUSH     {R2-R6,LR}
// 2443   volatile static range_rx_states_t u8AppState = IDLE_RANGE_RX_ST;
// 2444   volatile uint8_t u8retries;
// 2445 #if INTERFACE_TYPE == MANUAL 
// 2446   if(FALSE == gu8TestAlreadyStarted)
// 2447   {
// 2448      u8AppState = INIT_RANGE_RX_ST;
// 2449      LEDs_RX_INIT(250);
// 2450 #if (gLCDSupported_d) 
// 2451     LCD_WriteString_NormalFont(7,"    ");
// 2452     LCD_WriteString_NormalFont(4,"Range Listening..");
// 2453 #endif        
// 2454   }  
// 2455 #endif  
// 2456 
// 2457 #if INTERFACE_TYPE == SERIAL
// 2458   u8CurrentMode = SMAC_TEST_MODE_RANGE_RX;
        LDR      R4,??DataTable144
        MOVS     R0,#+3
        STRB     R0,[R4, #+16]
// 2459   
// 2460   Uart_Print("\r\n    ****************************");
        LDR      R6,??DataTable144_1
        MOVS     R0,R6
        BL       Uart_Print
// 2461   Uart_Print("\r\n    **       Range Test       **");
        MOVS     R0,#+164
        LSLS     R0,R0,#+1        ;; #+328
        ADDS     R0,R6,R0
        BL       Uart_Print
// 2462   Uart_Print("\r\n    ****************************");
        MOVS     R0,R6
        BL       Uart_Print
// 2463    
// 2464   Uart_Print("\r\nPress Q to exit from Range Test");
        MOVS     R0,#+182
        LSLS     R0,R0,#+1        ;; #+364
        ADDS     R0,R6,R0
        BL       Uart_Print
// 2465   Uart_Print("\r\nPress any key to start.....");
        LDR      R0,??DataTable144_2
        BL       Uart_Print
// 2466   Uart_getchar(mUARTRxBuffer);
        MOVS     R0,R4
        ADDS     R0,R0,#+32
        BL       Uart_getchar
// 2467   u8AppState = INIT_RANGE_RX_ST;
        MOVS     R0,#+1
        STRB     R0,[R4, #+30]
        LDR      R0,??DataTable145
        STR      R0,[SP, #+4]
        MOVS     R5,#+0
// 2468   do{
// 2469 #endif
// 2470 
// 2471       (void)process_radio_msg();
??range_rx_test_0:
        BL       process_radio_msg
// 2472       if(TRUE == gbDataIndicationFlag)
        LDRB     R0,[R4, #+23]
        CMP      R0,#+1
        BNE      ??range_rx_test_1
// 2473       {
// 2474         gbDataIndicationFlag = FALSE;
        STRB     R5,[R4, #+23]
// 2475         process_incoming_msg();
        BL       process_incoming_msg
// 2476       }
// 2477       else{
// 2478       }
// 2479 
// 2480 #if OTAP_ENABLED == TRUE
// 2481     if(gbOtapExecute)
// 2482     {
// 2483       OTAP_execute();        
// 2484     }
// 2485     else
// 2486 #endif
// 2487     {          
// 2488       switch(u8AppState){
??range_rx_test_1:
        LDRB     R1,[R4, #+0]
        LSRS     R2,R1,#+3
        LDR      R0,[SP, #+4]
        LDRB     R0,[R0, #+0]
        LDRB     R3,[R4, #+30]
        CMP      R3,#+1
        BEQ      ??range_rx_test_2
        BCC      ??range_rx_test_3
        CMP      R3,#+3
        BEQ      ??range_rx_test_4
        BCC      ??range_rx_test_5
        CMP      R3,#+4
        BEQ      ??range_rx_test_6
        B        ??range_rx_test_3
// 2489         case IDLE_RANGE_RX_ST:
// 2490         {
// 2491           // Do nothing when idle
// 2492         }
// 2493         break;
// 2494         
// 2495         case INIT_RANGE_RX_ST:
// 2496         {
// 2497           RX_msg.u8Status.msg_state = MSG_RX_ACTION_COMPLETE_SUCCESS;
??range_rx_test_2:
        LSLS     R1,R1,#+29
        LSRS     R1,R1,#+29
        MOVS     R2,#+40
        ORRS     R2,R2,R1
        STRB     R2,[R4, #+0]
// 2498           ACK_msg.u8Status.msg_state = MSG_TX_ACTION_COMPLETE_SUCCESS;        
        LSLS     R0,R0,#+29
        LSRS     R0,R0,#+29
        MOVS     R1,#+32
        ORRS     R1,R1,R0
        LDR      R0,[SP, #+4]
        STRB     R1,[R0, #+0]
// 2499   #if INTERFACE_TYPE == SERIAL        
// 2500           Uart_Print("\r\n\nThe RX radio is now listening...");
        MOVS     R0,#+146
        LSLS     R0,R0,#+1        ;; #+292
        ADDS     R0,R6,R0
        BL       Uart_Print
// 2501           Uart_Print("\r\nStart the test by pressing any key on TX radio");
        MOVS     R0,#+200
        LSLS     R0,R0,#+1        ;; #+400
        ADDS     R0,R6,R0
        BL       Uart_Print
// 2502   #endif       
// 2503           u8AppState = LISTEN_RANGE_RX_ST;
        MOVS     R0,#+3
        B        ??range_rx_test_7
// 2504         }
// 2505         break;
// 2506         
// 2507         case LISTEN_RANGE_RX_ST:
// 2508         {
// 2509           if(is_rx_msg_final_state(RX_msg))
??range_rx_test_4:
        CMP      R2,#+5
        BEQ      ??range_rx_test_8
        CMP      R2,#+6
        BEQ      ??range_rx_test_8
        CMP      R2,#+8
        BEQ      ??range_rx_test_8
        CMP      R2,#+4
        BNE      ??range_rx_test_3
// 2510           {
// 2511             RX_msg.u8BufSize = RANGE_RX_SIZE;
??range_rx_test_8:
        MOVS     R0,#+12
        STRB     R0,[R4, #+8]
// 2512             MLMERXEnableRequest(&RX_msg, 0x00000200);
        MOVS     R1,#+128
        LSLS     R1,R1,#+2        ;; #+512
        MOVS     R0,R4
        BL       MLMERXEnableRequest
// 2513             u8AppState = WAITING_RANGE_RX_ST;
        B        ??range_rx_test_9
// 2514           }
// 2515         }
// 2516         break;
// 2517   
// 2518        case WAITING_RANGE_RX_ST:
// 2519         {
// 2520           if(is_rx_msg_final_state(RX_msg))
??range_rx_test_5:
        CMP      R2,#+5
        BEQ      ??range_rx_test_10
        CMP      R2,#+6
        BEQ      ??range_rx_test_10
        CMP      R2,#+8
        BEQ      ??range_rx_test_10
        CMP      R2,#+4
        BNE      ??range_rx_test_11
// 2521           {
// 2522             u8AppState = LISTEN_RANGE_RX_ST;
??range_rx_test_10:
        MOVS     R0,#+3
        STRB     R0,[R4, #+30]
// 2523           }
// 2524           if(TRUE == gu8ValidRangePacket)
??range_rx_test_11:
        LDRB     R0,[R4, #+25]
        CMP      R0,#+1
        BNE      ??range_rx_test_3
// 2525           {
// 2526             gu8ValidRangePacket = FALSE;
        STRB     R5,[R4, #+25]
// 2527             u8AppState = TRANSMIT_ACK_RANGE_RX_ST;
        MOVS     R0,#+4
        STRB     R0,[R4, #+30]
// 2528             u8retries = 5;
        MOVS     R0,#+5
        MOV      R1,SP
        STRB     R0,[R1, #+0]
        B        ??range_rx_test_3
// 2529           }
// 2530         }
// 2531         break;
// 2532    
// 2533         
// 2534         case TRANSMIT_ACK_RANGE_RX_ST:
// 2535         {
// 2536 
// 2537           if(is_tx_msg_final_state(ACK_msg))
??range_rx_test_6:
        LSRS     R0,R0,#+3
        CMP      R0,#+4
        BEQ      ??range_rx_test_12
        CMP      R0,#+5
        BEQ      ??range_rx_test_12
        CMP      R0,#+7
        BEQ      ??range_rx_test_12
        CMP      R0,#+3
        BNE      ??range_rx_test_13
// 2538           { 
// 2539             MCPSDataRequest(&ACK_msg); 
??range_rx_test_12:
        LDR      R0,[SP, #+4]
        BL       MCPSDataRequest
// 2540             u8retries --;
        MOV      R0,SP
        LDRB     R0,[R0, #+0]
        SUBS     R0,R0,#+1
        MOV      R1,SP
        STRB     R0,[R1, #+0]
// 2541           }
// 2542           if(0 == u8retries)
??range_rx_test_13:
        MOV      R0,SP
        LDRB     R0,[R0, #+0]
        CMP      R0,#+0
        BNE      ??range_rx_test_3
// 2543           {
// 2544             u8AppState = WAITING_RANGE_RX_ST;
??range_rx_test_9:
        MOVS     R0,#+2
??range_rx_test_7:
        STRB     R0,[R4, #+30]
// 2545           }
// 2546         }
// 2547         break;
// 2548         
// 2549         case FINISH_RANGE_RX_ST:
// 2550         {
// 2551           /*Do nothing*/
// 2552         }
// 2553         break;
// 2554         default:
// 2555         {
// 2556         }
// 2557         break;
// 2558       }
// 2559    }
// 2560 #if INTERFACE_TYPE == SERIAL       
// 2561     Uart_Poll(mUARTRxBuffer);
??range_rx_test_3:
        MOVS     R0,R4
        ADDS     R0,R0,#+32
        BL       Uart_Poll
// 2562   }while (mUARTRxBuffer[0] != Exit);  
        MOVS     R0,#+32
        LDRB     R0,[R4, R0]
        CMP      R0,#+81
        BNE      ??range_rx_test_0
// 2563   u8CurrentMode = SMAC_TEST_MODE_IDLE;
        STRB     R5,[R4, #+16]
// 2564   MLMETestMode(u8CurrentMode);
        MOVS     R0,#+0
        BL       MLMETestMode
// 2565 #endif  
// 2566 #if INTERFACE_TYPE == MANUAL      
// 2567   gu8TestAlreadyStarted = TRUE;
// 2568 #endif
// 2569 }
        POP      {R0,R1,R4-R6}
        POP      {R3}
        BX       R3               ;; return

        SECTION `.text`:CODE:NOROOT(2)
        SECTION_TYPE SHT_PROGBITS, 0
        DATA
??DataTable144:
        DATA32
        DC32     RX_msg

        SECTION `.text`:CODE:NOROOT(2)
        SECTION_TYPE SHT_PROGBITS, 0
        DATA
??DataTable144_1:
        DATA32
        DC32     ?_41

        SECTION `.text`:CODE:NOROOT(2)
        SECTION_TYPE SHT_PROGBITS, 0
        DATA
??DataTable144_2:
        DATA32
        DC32     ?_128
// 2570 
// 2571 /************************************************************************************
// 2572 * range_tx_test
// 2573 *
// 2574 * This function performs the range transmission process.
// 2575 *
// 2576 ***********************************************************************************/
// 2577 

        SECTION `.text`:CODE:NOROOT(2)
        THUMB
// 2578 void range_tx_test(void)
// 2579 {
range_tx_test:
        PUSH     {R3-R7,LR}
// 2580   static range_tx_states_t u8AppState; 
// 2581   static uint16_t u8CountNoPacket = 0;
// 2582    
// 2583 #if INTERFACE_TYPE == MANUAL 
// 2584   if(FALSE == gu8TestAlreadyStarted)
// 2585   {
// 2586     clear_event(gu8TestModeEvents, TEST_START_EVENT);
// 2587     u8AppState = INIT_RANGE_TX_ST;
// 2588     LEDs_TX_INIT(250);  
// 2589 #if (gLCDSupported_d) 
// 2590     LCD_WriteString_NormalFont(7,"    ");
// 2591     LCD_WriteString_NormalFont(4,"Range Transmitting..");
// 2592 #endif        
// 2593   }  
// 2594 #endif  
// 2595 
// 2596 #if INTERFACE_TYPE == SERIAL    
// 2597 
// 2598   u8AppState = INIT_RANGE_TX_ST;
        LDR      R4,??DataTable147
        MOVS     R0,#+1
        STRB     R0,[R4, #+31]
// 2599   
// 2600   u8CurrentMode = SMAC_TEST_MODE_RANGE_TX;
        MOVS     R0,#+3
        STRB     R0,[R4, #+16]
// 2601   Uart_Print("\r\n    ****************************");
        LDR      R0,??DataTable147_1
        BL       Uart_Print
// 2602   Uart_Print("\r\n    **       Range Test       **");
        LDR      R0,??DataTable147_2
        BL       Uart_Print
// 2603   Uart_Print("\r\n    ****************************");
        LDR      R0,??DataTable147_1
        BL       Uart_Print
// 2604    
// 2605   Uart_Print("\r\nPress Q to exit from Range Test");
        LDR      R0,??DataTable147_3
        BL       Uart_Print
// 2606   Uart_Print("\r\nPress any key to start the test.....");
        LDR      R0,??DataTable147_4
        BL       Uart_Print
// 2607   Uart_getchar(mUARTRxBuffer);
        MOVS     R0,R4
        ADDS     R0,R0,#+32
        BL       Uart_getchar
        LDR      R0,??DataTable147_5
        STR      R0,[SP, #+0]
        MOVS     R5,#+4
// 2608   do{
// 2609 #endif
// 2610     (void)process_radio_msg();
??range_tx_test_1:
        BL       process_radio_msg
// 2611     if(TRUE == gbDataIndicationFlag)
        LDRB     R0,[R4, #+23]
        CMP      R0,#+1
        BNE      ??range_tx_test_2
// 2612     {
// 2613       gbDataIndicationFlag = FALSE;
        MOVS     R0,#+0
        STRB     R0,[R4, #+23]
// 2614       process_incoming_msg();
        BL       process_incoming_msg
// 2615       u8CountNoPacket = 0;
        MOVS     R0,#+0
        STRH     R0,[R4, #+52]
        B        ??range_tx_test_3
// 2616     }
// 2617     else{
// 2618       u8CountNoPacket++;
??range_tx_test_2:
        LDRH     R0,[R4, #+52]
        ADDS     R0,R0,#+1
        STRH     R0,[R4, #+52]
// 2619       if(MAX_NO_PACKET_ALLOW == u8CountNoPacket)
        LSLS     R1,R5,#+10
        LSLS     R0,R0,#+16
        LSRS     R0,R0,#+16
        CMP      R0,R1
        BNE      ??range_tx_test_3
// 2620       {
// 2621           u8CountNoPacket = 0;
        MOVS     R0,#+0
        STRH     R0,[R4, #+52]
// 2622           TurnOffLeds();
        BL       LED_TurnOffAllLeds
// 2623       }
// 2624     }
// 2625     
// 2626 #if OTAP_ENABLED == TRUE
// 2627  if(gbOtapExecute)
// 2628  {
// 2629     OTAP_execute();        
// 2630  }
// 2631  else
// 2632 #endif
// 2633   {
// 2634     
// 2635     switch(u8AppState)
??range_tx_test_3:
        LDRB     R0,[R4, #+0]
        LSRS     R1,R0,#+3
        LDR      R0,??DataTable149
        LDRB     R0,[R0, #+0]
        LSRS     R2,R0,#+3
        MOVS     R6,#+2
        LDRB     R3,[R4, #+31]
        CMP      R3,#+5
        BHI      ??range_tx_test_4
        ADR      R7,??range_tx_test_0
        LDRB     R7,[R7, R3]
        ADD      PC,PC,R7
        DATA
??range_tx_test_0:
        DC8      0x4,0x8,0x50,0xA8
        DC8      0x72,0x8E
        THUMB
// 2636     {
// 2637       case IDLE_RANGE_TX_ST:
// 2638       {
// 2639         // Do nothing when idle
// 2640   		u8AppState = INIT_RANGE_TX_ST;
??range_tx_test_5:
        MOVS     R0,#+1
        B        ??range_tx_test_6
// 2641       }
// 2642       break;
// 2643       case INIT_RANGE_TX_ST:
// 2644       {
// 2645         uint8_t i;
// 2646           RX_msg.u8Status.msg_state = MSG_RX_ACTION_COMPLETE_SUCCESS;
??range_tx_test_7:
        LDRB     R1,[R4, #+0]
        LSLS     R1,R1,#+29
        LSRS     R1,R1,#+29
        MOVS     R2,#+40
        ORRS     R2,R2,R1
        STRB     R2,[R4, #+0]
// 2647           TX_msg.u8Status.msg_state = MSG_TX_ACTION_COMPLETE_SUCCESS;
        LDR      R1,??DataTable149
        MOVS     R2,#+32
        LSLS     R0,R0,#+29
        LSRS     R0,R0,#+29
        MOVS     R3,#+32
        ORRS     R3,R3,R0
        STRB     R3,[R1, #+0]
// 2648           ACK_msg.u8Status.msg_state = MSG_TX_ACTION_COMPLETE_SUCCESS;
        LDR      R0,??DataTable145
        LDRB     R0,[R0, #+0]
        LSLS     R0,R0,#+29
        LSRS     R0,R0,#+29
        ORRS     R2,R2,R0
        LDR      R0,??DataTable145
        STRB     R2,[R0, #+0]
// 2649           for(i=0; i<(sizeof(u8RangeExpectedString)/sizeof(uint8_t)); i++)
        MOVS     R0,#+0
// 2650           {
// 2651             TX_msg.pu8Buffer->u8Data[i] = u8RangeExpectedString[i];
??range_tx_test_8:
        LDR      R2,[SP, #+0]
        LDRB     R2,[R2, R0]
        LDR      R3,[R1, #+4]
        ADDS     R3,R3,R0
        STRB     R2,[R3, #+2]
// 2652           }
        ADDS     R0,R0,#+1
        CMP      R0,#+10
        BCC      ??range_tx_test_8
// 2653 #if SMAC_FEATURE_SECURITY ==  TRUE
// 2654         {
// 2655           uint8_t fill_counter;
// 2656           for(fill_counter=sizeof(u8RangeExpectedString); fill_counter<16; fill_counter++)
// 2657           {
// 2658              TX_msg.pu8Buffer->u8Data[fill_counter] = '\0';
// 2659           }
// 2660           TX_msg.u8BufSize = 16;
// 2661           (void)CipherMsgU8(&(TX_msg.pu8Buffer->u8Data[0]), (TX_msg.u8BufSize));
// 2662         }
// 2663 #else
// 2664         TX_msg.u8BufSize = (sizeof(u8RangeExpectedString)/sizeof(uint8_t));
        MOVS     R0,#+10
        STRB     R0,[R1, #+8]
// 2665 #endif
// 2666 
// 2667 
// 2668 #if INTERFACE_TYPE == SERIAL              
// 2669           Uart_Print("\r\n\nThe transceiver is now transmitting...");
        LDR      R0,??DataTable149_1
        BL       Uart_Print
// 2670 #endif          
// 2671           u8AppState = TRANSMITING_RANGE_TX_ST;
        STRB     R6,[R4, #+31]
// 2672       }
// 2673       break;
        B        ??range_tx_test_4
// 2674       
// 2675       case TRANSMITING_RANGE_TX_ST:
// 2676       {
// 2677         if(is_tx_msg_final_state(TX_msg))
??range_tx_test_9:
        LDR      R6,??DataTable149
        CMP      R2,#+4
        BEQ      ??range_tx_test_10
        CMP      R2,#+5
        BEQ      ??range_tx_test_10
        CMP      R2,#+7
        BEQ      ??range_tx_test_10
        CMP      R2,#+3
        BNE      ??range_tx_test_11
// 2678         {
// 2679           
// 2680           DelayMs(5);
??range_tx_test_10:
        MOVS     R0,#+5
        BL       DelayMs
// 2681           MCPSDataRequest(&TX_msg);
        MOVS     R0,R6
        BL       MCPSDataRequest
// 2682         }
// 2683         u8AppState = LISTEN_RANGE_TX_ST;
??range_tx_test_11:
        STRB     R5,[R4, #+31]
// 2684       }  
// 2685       break;
        B        ??range_tx_test_4
// 2686       
// 2687       case LISTEN_RANGE_TX_ST:
// 2688       {
// 2689         if(is_rx_msg_final_state(RX_msg))
??range_tx_test_12:
        CMP      R1,#+5
        BEQ      ??range_tx_test_13
        CMP      R1,#+6
        BEQ      ??range_tx_test_13
        CMP      R1,#+8
        BEQ      ??range_tx_test_13
        CMP      R1,#+4
        BNE      ??range_tx_test_14
// 2690         {
// 2691           RX_msg.u8BufSize = RANGE_RX_SIZE;
??range_tx_test_13:
        MOVS     R0,#+12
        STRB     R0,[R4, #+8]
// 2692           MLMERXEnableRequest(&RX_msg, 0x00000200);
        LSLS     R1,R5,#+7
        MOVS     R0,R4
        BL       MLMERXEnableRequest
// 2693         }
// 2694         u8AppState = WAITING_RANGE_TX_ST;
// 2695       }
// 2696       break;
// 2697       
// 2698       case WAITING_RANGE_TX_ST:
// 2699       {
// 2700         if(is_tx_msg_final_state(TX_msg))
// 2701         {
// 2702           u8AppState = TRANSMITING_RANGE_TX_ST;
// 2703         }
// 2704         if(is_rx_msg_final_state(RX_msg))
// 2705         {
// 2706           u8AppState = LISTEN_RANGE_TX_ST;
// 2707         }
// 2708         if(TRUE == gu8ValidAckPacket)
// 2709         {
// 2710           gu8ValidAckPacket = FALSE;
// 2711           u8AppState = RANGE_INDICATION_TX_ST;
// 2712         }
// 2713       }
// 2714       break;
// 2715       
// 2716       case RANGE_INDICATION_TX_ST:
// 2717       {
// 2718         u8AppState = WAITING_RANGE_TX_ST;
??range_tx_test_14:
        MOVS     R0,#+3
??range_tx_test_6:
        STRB     R0,[R4, #+31]
// 2719       }
// 2720       break;
// 2721       
// 2722       default:
// 2723       {
// 2724       }
// 2725       break;
// 2726     }
// 2727   }
// 2728 #if INTERFACE_TYPE == SERIAL                  
// 2729     Uart_Poll(mUARTRxBuffer);
??range_tx_test_4:
        MOVS     R0,R4
        ADDS     R0,R0,#+32
        BL       Uart_Poll
// 2730   }while (mUARTRxBuffer[0] != Exit);  
        MOVS     R0,#+32
        LDRB     R0,[R4, R0]
        CMP      R0,#+81
        BNE      ??range_tx_test_1
// 2731   u8CurrentMode = SMAC_TEST_MODE_IDLE;
        MOVS     R0,#+0
        STRB     R0,[R4, #+16]
// 2732   MLMETestMode(u8CurrentMode);
        B.N      ??Subroutine2_0
??range_tx_test_15:
        CMP      R2,#+4
        BEQ      ??range_tx_test_16
        CMP      R2,#+5
        BEQ      ??range_tx_test_16
        CMP      R2,#+7
        BEQ      ??range_tx_test_16
        CMP      R2,#+3
        BNE      ??range_tx_test_17
??range_tx_test_16:
        STRB     R6,[R4, #+31]
??range_tx_test_17:
        CMP      R1,#+5
        BEQ      ??range_tx_test_18
        CMP      R1,#+6
        BEQ      ??range_tx_test_18
        CMP      R1,#+8
        BEQ      ??range_tx_test_18
        CMP      R1,#+4
        BNE      ??range_tx_test_19
??range_tx_test_18:
        STRB     R5,[R4, #+31]
??range_tx_test_19:
        LDRB     R0,[R4, #+26]
        CMP      R0,#+1
        BNE      ??range_tx_test_4
        MOVS     R0,#+0
        STRB     R0,[R4, #+26]
        MOVS     R0,#+5
        B        ??range_tx_test_6
// 2733 #endif
// 2734 
// 2735 #if INTERFACE_TYPE == MANUAL      
// 2736   gu8TestAlreadyStarted = TRUE;
// 2737 #endif
// 2738 }

        SECTION `.text`:CODE:NOROOT(2)
        SECTION_TYPE SHT_PROGBITS, 0
        DATA
??DataTable145:
        DATA32
        DC32     ACK_msg

        SECTION `.data`:DATA:REORDER:NOROOT(2)
        DATA
RX_msg:
        DATA64
        DC8 0, 0, 0, 0, 0, 0, 0, 0, 0, 0, 0, 0, 0, 0, 0, 0
u8CurrentMode:
        DATA8
        DC8 0
u8TestModeChannel:
        DC8 0
u8TestModePower:
        DC8 0
CurrentOption:
        DC8 0
u8CurrentCoarseTune:
        DC8 0
u8CurrentFineTune:
        DC8 0
u8BulkCapState:
        DC8 0
gbDataIndicationFlag:
        DC8 0
gu8TestModeEvents:
        DC8 0
gu8ValidRangePacket:
        DC8 0
gu8ValidAckPacket:
        DC8 0
gu8TestAlreadyStarted:
        DC8 0
        DC8 0
        DC8 0
        DC8 0
        DC8 0
mUARTRxBuffer:
        DATA64
        DC8 0, 0, 0, 0, 0, 0, 0, 0, 0, 0, 0, 0
        DATA16
        DC16 0
        DC16 10
        DC8 0, 0
        DC8 0, 0
        DC16 0
        DATA8
        DC8 0, 0
gu32PerRxEvents:
        DATA32
        DC8 0, 0, 0, 0
u8LQIIcon4_c:
        DATA8
        DC8 0, 0, 0, 0, 48, 176, 176, 176, 176, 176, 176, 176, 176, 176, 176
        DC8 176, 176, 176, 48, 0, 0, 0, 0, 0, 0, 0, 0, 0, 0, 1, 13, 109, 109
        DC8 109, 109, 109, 109, 109, 109, 109, 13, 1, 0, 0, 0, 0, 0, 0, 0, 0, 0
        DC8 0, 0, 0, 0, 0, 6, 10, 10, 254, 10, 10, 6, 0, 0, 0, 0, 0, 0, 0, 0, 0
u8LQIIcon3_c:
        DC8 0, 0, 0, 0, 0, 128, 128, 128, 128, 128, 128, 128, 128, 128, 128
        DC8 128, 128, 128, 0, 0, 0, 0, 0, 0, 0, 0, 0, 0, 0, 1, 13, 109, 109
        DC8 109, 109, 109, 109, 109, 109, 109, 13, 1, 0, 0, 0, 0, 0, 0, 0, 0, 0
        DC8 0, 0, 0, 0, 0, 6, 10, 10, 254, 10, 10, 6, 0, 0, 0, 0, 0, 0, 0, 0, 0
u8LQIIcon2_c:
        DC8 0, 0, 0, 0, 0, 0, 0, 0, 0, 0, 0, 0, 0, 0, 0, 0, 0, 0, 0, 0, 0, 0, 0
        DC8 0, 0, 0, 0, 0, 0, 0, 12, 108, 108, 108, 108, 108, 108, 108, 108
        DC8 108, 12, 0, 0, 0, 0, 0, 0, 0, 0, 0, 0, 0, 0, 0, 0, 0, 6, 10, 10
        DC8 254, 10, 10, 6, 0, 0, 0, 0, 0, 0, 0, 0, 0
u8LQIIcon1_c:
        DC8 0, 0, 0, 0, 0, 0, 0, 0, 0, 0, 0, 0, 0, 0, 0, 0, 0, 0, 0, 0, 0, 0, 0
        DC8 0, 0, 0, 0, 0, 0, 0, 0, 96, 96, 96, 96, 96, 96, 96, 96, 96, 0, 0, 0
        DC8 0, 0, 0, 0, 0, 0, 0, 0, 0, 0, 0, 0, 0, 6, 10, 10, 254, 10, 10, 6, 0
        DC8 0, 0, 0, 0, 0, 0, 0, 0

        SECTION `.data`:DATA:REORDER:NOROOT(2)
        DATA
u8RxIcon1_c:
        DATA8
        DC8 0, 0, 62, 65, 0, 62, 65, 0, 62, 65, 0, 252, 252, 0, 65, 62, 0, 65
        DC8 62, 0, 65, 62, 0, 0, 0, 0, 0, 0, 0, 0, 0, 0, 0, 0, 254, 171, 87
        DC8 254, 0, 0, 0, 0, 0, 0, 0, 0, 0, 0, 0, 0, 0, 0, 0, 0, 0, 0, 0, 224
        DC8 255, 250, 253, 255, 224, 0, 0, 0, 0, 0, 0, 0, 0, 0

        SECTION `.data`:DATA:REORDER:NOROOT(2)
        DATA
u8RxIcon2_c:
        DATA8
        DC8 0, 0, 0, 0, 0, 0, 0, 0, 62, 65, 0, 252, 252, 0, 65, 62, 0, 0, 0, 0
        DC8 0, 0, 0, 0, 0, 0, 0, 0, 0, 0, 0, 0, 0, 0, 254, 171, 87, 254, 0, 0
        DC8 0, 0, 0, 0, 0, 0, 0, 0, 0, 0, 0, 0, 0, 0, 0, 0, 0, 224, 255, 250
        DC8 253, 255, 224, 0, 0, 0, 0, 0, 0, 0, 0, 0

        SECTION `.data`:DATA:REORDER:NOROOT(0)
        DATA
minLQI:
        DATA8
        DC8 255
// 2739 
// 2740 
// 2741 /************************************************************************************
// 2742 * configure_clock_setting
// 2743 *
// 2744 * This function adjust the clock setting selected by the user in the serial interface.
// 2745 *
// 2746 ***********************************************************************************/

        SECTION `.text`:CODE:NOROOT(2)
        THUMB
// 2747 void configure_clock_settings(void)
// 2748 {
configure_clock_settings:
        PUSH     {R3-R7,LR}
        LDR      R7,??DataTable147
        LDR      R4,??DataTable150  ;; 0x80003040
// 2749   char option_menu, option;
// 2750    do{
// 2751       option_menu = clock_setting_menu();
??configure_clock_settings_0:
        BL       clock_setting_menu
        MOVS     R5,R0
// 2752       switch(option_menu)
        CMP      R0,#+49
        BEQ      ??configure_clock_settings_1
        CMP      R0,#+50
        BEQ      ??configure_clock_settings_2
        CMP      R0,#+51
        BEQ      ??configure_clock_settings_3
        CMP      R0,#+112
        BEQ      ??configure_clock_settings_4
        B        ??configure_clock_settings_5
// 2753       {
// 2754         case BulkCapacitor:
// 2755          do
// 2756           {
// 2757             option = bulk_cap_menu();
??configure_clock_settings_1:
        BL       bulk_cap_menu
        MOVS     R6,R0
// 2758             switch(option)
        CMP      R0,#+68
        BEQ      ??configure_clock_settings_6
        CMP      R0,#+69
        BEQ      ??configure_clock_settings_7
        CMP      R0,#+112
        BEQ      ??configure_clock_settings_8
        B        ??configure_clock_settings_9
// 2759             {
// 2760               case EnableBulkCapacitor:
// 2761                 enable_bulk_cap(); 
??configure_clock_settings_7:
        LDR      R0,[R4, #+0]
        MOVS     R1,#+128
        LSLS     R1,R1,#+18       ;; #+33554432
        ORRS     R1,R1,R0
        STR      R1,[R4, #+0]
// 2762                 u8BulkCapState = gEnable_c;
        MOVS     R0,#+1
        B.N      ??configure_clock_settings_10
// 2763                 break;
// 2764               case DisableBulkCapacitor:
// 2765                 disable_bulk_cap(); 
??configure_clock_settings_6:
        LDR      R0,[R4, #+0]
        LDR      R1,??DataTable151  ;; 0xfdffffff
        ANDS     R1,R1,R0
        STR      R1,[R4, #+0]
// 2766                 u8BulkCapState = gDisable_c;
        MOVS     R0,#+0
??configure_clock_settings_10:
        STRB     R0,[R7, #+22]
// 2767                 break;
        B        ??configure_clock_settings_8
// 2768               case PreviousMenu:
// 2769                 break;
// 2770               default:
// 2771                 Uart_Print("  Invalid Option!!!");
??configure_clock_settings_9:
        Nop      
        ADR.N    R0,?_125
        BL       Uart_Print
// 2772                 break;              
// 2773             }
// 2774           }while(option != PreviousMenu);
??configure_clock_settings_8:
        CMP      R6,#+112
        BNE      ??configure_clock_settings_1
        B        ??configure_clock_settings_4
// 2775           break;
// 2776           
// 2777         case CoarseTune:
// 2778           coarse_tune_adjust();
??configure_clock_settings_2:
        BL       coarse_tune_adjust
// 2779           break;
        B        ??configure_clock_settings_4
// 2780           
// 2781         case FineTune:
// 2782           fine_tune_adjust();
??configure_clock_settings_3:
        BL       fine_tune_adjust
// 2783           break;
        B        ??configure_clock_settings_4
// 2784           
// 2785         case PreviousMenu:
// 2786           break;
// 2787           
// 2788         default:
// 2789           Uart_Print("  Invalid Option!!!\n");
??configure_clock_settings_5:
        ADR.N    R0,?_78
        BL       Uart_Print
// 2790           break;
// 2791      }
// 2792   }while(option_menu != PreviousMenu); 
??configure_clock_settings_4:
        CMP      R5,#+112
        BNE      ??configure_clock_settings_0
// 2793 }
        B.N      ??Subroutine5_0

        SECTION `.text`:CODE:NOROOT(2)
        SECTION_TYPE SHT_PROGBITS, 0
        DATA
?_125:
        DC8 "  Invalid Option!!!"

        SECTION `.text`:CODE:NOROOT(2)
        SECTION_TYPE SHT_PROGBITS, 0
        DATA
?_78:
        DC8 "  Invalid Option!!!\012"
        DC8 0, 0, 0
// 2794 
// 2795 /************************************************************************************
// 2796 * coarse_tune_adjust
// 2797 *
// 2798 * This function ajusts the current coarse tune value to the new typed by the user 
// 2799 * in the serial interface.
// 2800 *
// 2801 ***********************************************************************************/

        SECTION `.text`:CODE:NOROOT(1)
        THUMB
// 2802 void coarse_tune_adjust(void)
// 2803 {
coarse_tune_adjust:
        PUSH     {R4-R6,LR}
// 2804   uint8_t u8TempCoarse;
// 2805   Uart_Print("\r\n\nCoarse Tune Adjustment\n\n\n");
        LDR      R0,??DataTable151_1
        BL       Uart_Print
// 2806   Uart_Print("\r  Current Coarse Tune Value: ");
        LDR      R0,??DataTable151_2
        BL       Uart_Print
// 2807   Uart_PrintHex(&u8CurrentCoarseTune, 1,gPrtHexNewLine_c);
        LDR      R4,??DataTable147
        MOVS     R2,#+2
        MOVS     R1,#+1
        MOVS     R0,R4
        ADDS     R0,R0,#+20
        BL       Uart_PrintHex
// 2808   Uart_Print("\r\nPlease enter the new Coarse Tune value between 0x00 to 0x0F in hexadecimal:  ");
        LDR      R5,??DataTable151_3
        MOVS     R0,R5
        BL       Uart_Print
// 2809   Uart_getchar(mUARTRxBuffer);
        MOVS     R0,R4
        ADDS     R0,R0,#+32
        BL       Uart_getchar
// 2810   u8TempCoarse = (AsciitoHex(mUARTRxBuffer[0]));
        MOVS     R0,#+32
        LDRB     R0,[R4, R0]
        BL       AsciitoHex
        MOVS     R6,R0
// 2811   Uart_getchar(mUARTRxBuffer);
        MOVS     R0,R4
        ADDS     R0,R0,#+32
        BL       Uart_getchar
// 2812 
// 2813   if(u8TempCoarse > 0X00)
        CMP      R6,#+0
        BEQ      ??coarse_tune_adjust_0
// 2814   {
// 2815     Uart_Print("\r\n    Incorrect value!!!  The value must be between 0x00 to 0x0F\n");  
        MOVS     R0,R5
        ADDS     R0,R0,#+80
        BL       Uart_Print
        B        ??coarse_tune_adjust_1
// 2816   }
// 2817   else
// 2818   {
// 2819     u8CurrentCoarseTune = (u8TempCoarse << 4);
??coarse_tune_adjust_0:
        MOVS     R0,#+0
        STRB     R0,[R4, #+20]
// 2820     u8CurrentCoarseTune |= AsciitoHex(mUARTRxBuffer[0]);
        MOVS     R0,#+32
        LDRB     R0,[R4, R0]
        BL       AsciitoHex
        LDRB     R1,[R4, #+20]
        ORRS     R0,R0,R1
        STRB     R0,[R4, #+20]
// 2821     set_xtal_coarse_tune(u8CurrentCoarseTune); 
        LDR      R1,??DataTable150  ;; 0x80003040
        LDR      R2,[R1, #+0]
        LDR      R3,??DataTable151_4  ;; 0xfe1fffff
        ANDS     R3,R3,R2
        LSLS     R0,R0,#+21
        MOVS     R2,#+240
        LSLS     R2,R2,#+17       ;; #+31457280
        ANDS     R2,R2,R0
        ORRS     R2,R2,R3
        STR      R2,[R1, #+0]
// 2822   }
// 2823 }
??coarse_tune_adjust_1:
        POP      {R4-R6}
        POP      {R3}
        BX       R3               ;; return

        SECTION `.text`:CODE:NOROOT(2)
        SECTION_TYPE SHT_PROGBITS, 0
        DATA
??DataTable147:
        DATA32
        DC32     RX_msg

        SECTION `.text`:CODE:NOROOT(2)
        SECTION_TYPE SHT_PROGBITS, 0
        DATA
??DataTable147_1:
        DATA32
        DC32     ?_41

        SECTION `.text`:CODE:NOROOT(2)
        SECTION_TYPE SHT_PROGBITS, 0
        DATA
??DataTable147_2:
        DATA32
        DC32     ?_41+0x148

        SECTION `.text`:CODE:NOROOT(2)
        SECTION_TYPE SHT_PROGBITS, 0
        DATA
??DataTable147_3:
        DATA32
        DC32     ?_41+0x16C

        SECTION `.text`:CODE:NOROOT(2)
        SECTION_TYPE SHT_PROGBITS, 0
        DATA
??DataTable147_4:
        DATA32
        DC32     ?_41+0x1C4

        SECTION `.text`:CODE:NOROOT(2)
        SECTION_TYPE SHT_PROGBITS, 0
        DATA
??DataTable147_5:
        DATA32
        DC32     u8RangeExpectedString
// 2824 
// 2825 /************************************************************************************
// 2826 * fine_tune_adjust
// 2827 *
// 2828 * This function ajusts the current fine tune value to the new typed by the user
// 2829 * through the serial interface.
// 2830 *
// 2831 ***********************************************************************************/

        SECTION `.text`:CODE:NOROOT(1)
        THUMB
// 2832 void fine_tune_adjust()
// 2833 {
fine_tune_adjust:
        PUSH     {R4-R6,LR}
// 2834   uint8_t u8TempFine;
// 2835   Uart_Print("\r\n\nFine Tune Adjustment\n\n\n");
        LDR      R0,??DataTable151_5
        BL       Uart_Print
// 2836   Uart_Print("\r  Current Fine Tune Value: ");
        LDR      R0,??DataTable151_6
        BL       Uart_Print
// 2837   Uart_PrintHex(&u8CurrentFineTune, 1,gPrtHexNewLine_c);
        LDR      R4,??DataTable151_7
        MOVS     R2,#+2
        MOVS     R1,#+1
        MOVS     R0,R4
        ADDS     R0,R0,#+21
        BL       Uart_PrintHex
// 2838   Uart_Print("\r\nPlease enter the new Fine Tune value between 0x00 to 0x1F in hexadecimal:  ");
        LDR      R5,??DataTable151_8
        MOVS     R0,R5
        BL       Uart_Print
// 2839   u8TempFine = Uart_getchar(mUARTRxBuffer);
        MOVS     R0,R4
        ADDS     R0,R0,#+32
        BL       Uart_getchar
// 2840   u8TempFine = (AsciitoHex(mUARTRxBuffer[0]));
        MOVS     R0,#+32
        LDRB     R0,[R4, R0]
        BL       AsciitoHex
        MOVS     R6,R0
// 2841   Uart_getchar(mUARTRxBuffer);
        MOVS     R0,R4
        ADDS     R0,R0,#+32
        BL       Uart_getchar
// 2842   if(u8TempFine > 0X01)
        CMP      R6,#+2
        BLT      ??fine_tune_adjust_0
// 2843   {
// 2844     Uart_Print("\r\n    Incorrect value!!!  The value must be between 0x00 to 0x1F\n");  
        MOVS     R0,R5
        ADDS     R0,R0,#+80
        BL       Uart_Print
        B        ??fine_tune_adjust_1
// 2845   }
// 2846   else
// 2847   {
// 2848     u8CurrentFineTune = (u8TempFine << 4);
??fine_tune_adjust_0:
        LSLS     R0,R6,#+4
        STRB     R0,[R4, #+21]
// 2849     u8CurrentFineTune |= AsciitoHex(mUARTRxBuffer[0]);
        MOVS     R0,#+32
        LDRB     R0,[R4, R0]
        BL       AsciitoHex
        LDRB     R1,[R4, #+21]
        ORRS     R0,R0,R1
        STRB     R0,[R4, #+21]
// 2850     set_xtal_fine_tune(u8CurrentFineTune); 
        LDR      R1,??DataTable150  ;; 0x80003040
        LDR      R2,[R1, #+0]
        LDR      R3,??DataTable151_9  ;; 0xffe0ffff
        ANDS     R3,R3,R2
        LSLS     R0,R0,#+16
        MOVS     R2,#+248
        LSLS     R2,R2,#+13       ;; #+2031616
        ANDS     R2,R2,R0
        ORRS     R2,R2,R3
        STR      R2,[R1, #+0]
// 2851   }
// 2852 
// 2853 }
??fine_tune_adjust_1:
        POP      {R4-R6}
        POP      {R3}
        BX       R3               ;; return
// 2854 /************************************************************************************
// 2855 * PrintTestMode
// 2856 *
// 2857 * This function prints the Test Mode name received as parameter.
// 2858 *
// 2859 *********************************************************************************/

        SECTION `.text`:CODE:NOROOT(2)
        THUMB
// 2860 void PrintTestMode(Test_Mode_t TestModeValue)
// 2861 {
PrintTestMode:
        MOVS     R1,R0
        LDR      R0,??DataTable151_10
        CMP      R1,#+6
        BLS      ??PrintTestMode_1
        BX       LR
??PrintTestMode_1:
        PUSH     {R7,LR}
// 2862   switch(TestModeValue)
        ADR      R2,??PrintTestMode_0
        LDRB     R2,[R2, R1]
        ADD      PC,PC,R2
        Nop      
        DATA
??PrintTestMode_0:
        DC8      0x8,0x1E,0x18,0x1C
        DC8      0x10,0x14,0xC,0x0
        THUMB
// 2863   {
// 2864     case SMAC_TEST_MODE_IDLE:
// 2865       Uart_Print("IDLE MODE\n");
??PrintTestMode_2:
        ADR.N    R0,?_133
        B        ??PrintTestMode_3
// 2866       break;
// 2867 	  
// 2868     case SMAC_TEST_MODE_CONTINUOUS_RX:
// 2869       Uart_Print("CONTINUOUS RECEPTION\n");
??PrintTestMode_4:
        ADR.N    R0,?_134
        B        ??PrintTestMode_3
// 2870       break;
// 2871 	  
// 2872     case SMAC_TEST_MODE_PULSE_PRBS9_TX:
// 2873       Uart_Print("CONTINUOUS PULSE PRBS9 TRANSMISSION\n");
// 2874       break;
// 2875 	  
// 2876     case SMAC_TEST_MODE_CONTINUOUS_TX_MOD:
// 2877       Uart_Print("CONTINUOUS MODULATED TRANSMISSION\n");
??PrintTestMode_5:
        ADDS     R0,R0,#+40
        B        ??PrintTestMode_3
// 2878       break;       
// 2879 	  
// 2880     case SMAC_TEST_MODE_CONTINUOUS_TX_NOMOD:
// 2881       Uart_Print("CONTINUOUS UNMODULATED TRANSMISSION\n");
??PrintTestMode_6:
        ADDS     R0,R0,#+76
        B        ??PrintTestMode_3
// 2882       break;      
// 2883 	  
// 2884     case SMAC_TEST_MODE_PER_TX:
// 2885       Uart_Print("PACKET ERROR RATE TEST\n");
??PrintTestMode_7:
        ADR.N    R0,?_135
        B        ??PrintTestMode_3
// 2886       break;
// 2887 	  
// 2888     case SMAC_TEST_MODE_RANGE_TX:
// 2889       Uart_Print("RANGE TEST\n");
??PrintTestMode_8:
        ADR.N    R0,?_136
??PrintTestMode_3:
        BL       Uart_Print
// 2890       break;
// 2891 	  
// 2892     default:
// 2893       break;
// 2894   }
// 2895 }
??PrintTestMode_9:
        POP      {R0,R3}
        BX       R3               ;; return

        SECTION `.text`:CODE:NOROOT(2)
        SECTION_TYPE SHT_PROGBITS, 0
        DATA
??DataTable149:
        DATA32
        DC32     TX_msg

        SECTION `.text`:CODE:NOROOT(2)
        SECTION_TYPE SHT_PROGBITS, 0
        DATA
??DataTable149_1:
        DATA32
        DC32     ?_41+0x1EC

        SECTION `.text`:CODE:NOROOT(2)
        SECTION_TYPE SHT_PROGBITS, 0
        DATA
?_133:
        DC8 "IDLE MODE\012"
        DATA8
        DC8 0

        SECTION `.text`:CODE:NOROOT(2)
        SECTION_TYPE SHT_PROGBITS, 0
        DATA
?_134:
        DC8 "CONTINUOUS RECEPTION\012"
        DATA16
        DC8 0, 0

        SECTION `.text`:CODE:NOROOT(2)
        SECTION_TYPE SHT_PROGBITS, 0
        DATA
?_135:
        DC8 "PACKET ERROR RATE TEST\012"

        SECTION `.text`:CODE:NOROOT(2)
        SECTION_TYPE SHT_PROGBITS, 0
        DATA
?_136:
        DC8 "RANGE TEST\012"
// 2896 
// 2897 /************************************************************************************
// 2898 * PrintChannel
// 2899 *
// 2900 * This function prints the Channel number received as parameter.
// 2901 *
// 2902 ***********************************************************************************/

        SECTION `.text`:CODE:NOROOT(2)
        THUMB
// 2903 void PrintChannel(channel_num_t u8ChannelValue)
// 2904 {
PrintChannel:
        PUSH     {R4,LR}
        MOVS     R4,R0
// 2905   if( TOTAL_CHANN > u8ChannelValue ){
        CMP      R0,#+16
        BGE      ??PrintChannel_0
// 2906     u8ChannelValue += 11;
// 2907     Uart_Print("CHANNEL ");
        ADR.N    R0,?_137
        BL       Uart_Print
// 2908     Uart_PrintByteDec(u8ChannelValue);
        ADDS     R4,R4,#+11
        LSLS     R0,R4,#+24
        LSRS     R0,R0,#+24
        BL       Uart_PrintByteDec
// 2909     Uart_Print("\n");
        ADR      R0,??DataTable152  ;; "\n"
        BL       Uart_Print
// 2910   }
// 2911 }
??PrintChannel_0:
        BL       ??Subroutine4_0

        SECTION `.text`:CODE:NOROOT(2)
        SECTION_TYPE SHT_PROGBITS, 0
        DATA
??DataTable150:
        DATA32
        DC32     0x80003040

        SECTION `.text`:CODE:NOROOT(2)
        SECTION_TYPE SHT_PROGBITS, 0
        DATA
?_137:
        DC8 "CHANNEL "
        DC8 0, 0, 0
// 2912 
// 2913 /************************************************************************************
// 2914 * LEDs_LQI_indicator
// 2915 *
// 2916 * This function show the four possible LQI adjusted values using three LEDs.
// 2917 *
// 2918 ************************************************************************************/
// 2919 #if (gLEDSupported_d)

        SECTION `.text`:CODE:NOROOT(2)
        THUMB
// 2920 void LEDs_LQI_indication(link_quality_value_t u8LinkQuality)
// 2921 {
LEDs_LQI_indication:
        PUSH     {R3-R5,LR}
        SUB      SP,SP,#+16
        MOVS     R4,R0
// 2922   uint8_t LEDs_state[4][4]={gFarRange_c,LED_OFF,LED_OFF,LED_OFF,
// 2923                             gMediumRange_c,LED_ON,LED_OFF,LED_OFF,
// 2924                             gNearRange_c,LED_ON,LED_ON,LED_OFF,
// 2925                             gVeryNearRange_c,LED_ON,LED_ON,LED_ON
// 2926                            };
        MOV      R0,SP
        ADR.N    R1,?_138
        MOVS     R2,#+16
        BL       __aeabi_memcpy4
// 2927   Gpio_SetPinData(LED2_PIN, (GpioPinState_t)LEDs_state[u8LinkQuality][1]);
        LSLS     R4,R4,#+2
        MOV      R5,SP
        ADDS     R0,R5,R4
        LDRB     R1,[R0, #+1]
        MOVS     R0,#+24
        BL       Gpio_SetPinData
// 2928   Gpio_SetPinData(LED3_PIN, (GpioPinState_t)LEDs_state[u8LinkQuality][2]);
        ADDS     R0,R5,R4
        LDRB     R1,[R0, #+2]
        MOVS     R0,#+25
        BL       Gpio_SetPinData
// 2929   Gpio_SetPinData(LED4_PIN, (GpioPinState_t)LEDs_state[u8LinkQuality][3]);
        ADDS     R0,R5,R4
        LDRB     R1,[R0, #+3]
        MOVS     R0,#+44
        BL       Gpio_SetPinData
// 2930 }
        ADD      SP,SP,#+20
        POP      {R4,R5}
        POP      {R3}
        BX       R3               ;; return

        SECTION `.text`:CODE:NOROOT(2)
        SECTION_TYPE SHT_PROGBITS, 0
        DATA
?_138:
        DATA8
        DC8 0, 0, 0, 0, 1, 1, 0, 0, 2, 1, 1, 0, 3, 1, 1, 1
// 2931 #endif
// 2932 
// 2933 /************************************************************************************
// 2934 * TMR_Init
// 2935 *
// 2936 * This function configurates the timer to generate a output frequency at 2 MHz.
// 2937 * 
// 2938 **********************************************************************************/

        SECTION `.text`:CODE:NOROOT(1)
        THUMB
// 2939 void TMR_Init(void)
// 2940 {              
TMR_Init:
        PUSH     {R1-R5,LR}
// 2941   TmrConfig_t pConfig;
// 2942   TmrStatusCtrl_t pStatusCtrl;
// 2943   TmrComparatorStatusCtrl_t pCompStatusCtrl;
// 2944   
// 2945   TmrInit();
        BL       TmrInit
// 2946   GpioTmrInit();
        BL       GpioTmrInit
// 2947   TmrEnable(gTmr1_c);
        MOVS     R0,#+1
        BL       TmrEnable
// 2948  
// 2949   SetLoadVal(gTmr1_c, 0x00);
        LDR      R0,??DataTable152_1  ;; 0x80007020
        MOVS     R4,#+0
        STRH     R4,[R0, #+6]
// 2950   SetCntrVal(gTmr1_c, 0x00);
        STRH     R4,[R0, #+10]
// 2951   SetCompLoad1Val(gTmr1_c, 0x05);         
        MOVS     R5,#+5
        STRH     R5,[R0, #+16]
// 2952   SetCompLoad2Val(gTmr1_c, 0x05);        
        STRH     R5,[R0, #+18]
// 2953  
// 2954   SetComp1Val(gTmr1_c, 0x05);  
        STRH     R5,[R0, #+0]
// 2955   SetComp2Val(gTmr1_c, 0x05);              
        STRH     R5,[R0, #+2]
// 2956      
// 2957   TmrSetMode(gTmr1_c, gTmrCntRiseEdgFallEdgPriSrc_c);   
        MOVS     R1,#+2
        MOVS     R0,#+1
        BL       TmrSetMode
// 2958 
// 2959   pConfig.tmrOutputMode = gTmrToggleOF_c;
        ADD      R0,SP,#+4
        MOVS     R1,#+3
        STRB     R1,[R0, #+0]
// 2960   pConfig.tmrCoInit = FALSE;
        STRB     R4,[R0, #+1]
// 2961   pConfig.tmrCntDir = FALSE;
        STRB     R4,[R0, #+2]
// 2962   pConfig.tmrCntLen = TRUE;
        MOVS     R1,#+1
        STRB     R1,[R0, #+3]
// 2963   pConfig.tmrCntOnce = FALSE;
        STRH     R4,[R0, #+4]
// 2964   pConfig.tmrSecondaryCntSrc = gTmrSecondaryCnt0Input_c;
// 2965   pConfig.tmrPrimaryCntSrc = gTmrPrimaryClkDiv1_c;      
        MOVS     R1,#+8
        STRB     R1,[R0, #+6]
// 2966   TmrSetConfig(gTmr1_c, &pConfig);  
        ADD      R1,SP,#+4
        MOVS     R0,#+1
        BL       TmrSetConfig
// 2967 
// 2968   pCompStatusCtrl.uintValue =0x06;
        MOVS     R0,#+6
        MOV      R1,SP
        STRH     R0,[R1, #+0]
// 2969   TmrSetCompStatusControl(gTmr1_c, &pCompStatusCtrl);
        MOVS     R0,#+1
        BL       TmrSetCompStatusControl
// 2970  
// 2971   pStatusCtrl.uintValue = 0x05;
        MOV      R0,SP
        STRH     R5,[R0, #+2]
// 2972   TmrSetStatusControl(gTmr1_c, &pStatusCtrl);
        ADD      R1,SP,#+0
        ADDS     R1,R1,#+2
        MOVS     R0,#+1
        BL       TmrSetStatusControl
// 2973 }
        POP      {R0-R2,R4,R5}
        POP      {R3}
        BX       R3               ;; return

        SECTION `.text`:CODE:NOROOT(2)
        SECTION_TYPE SHT_PROGBITS, 0
        DATA
??DataTable151:
        DATA32
        DC32     0xfdffffff

        SECTION `.text`:CODE:NOROOT(2)
        SECTION_TYPE SHT_PROGBITS, 0
        DATA
??DataTable151_1:
        DATA32
        DC32     ?_129

        SECTION `.text`:CODE:NOROOT(2)
        SECTION_TYPE SHT_PROGBITS, 0
        DATA
??DataTable151_2:
        DATA32
        DC32     ?_130

        SECTION `.text`:CODE:NOROOT(2)
        SECTION_TYPE SHT_PROGBITS, 0
        DATA
??DataTable151_3:
        DATA32
        DC32     ?_54

        SECTION `.text`:CODE:NOROOT(2)
        SECTION_TYPE SHT_PROGBITS, 0
        DATA
??DataTable151_4:
        DATA32
        DC32     0xfe1fffff

        SECTION `.text`:CODE:NOROOT(2)
        SECTION_TYPE SHT_PROGBITS, 0
        DATA
??DataTable151_5:
        DATA32
        DC32     ?_131

        SECTION `.text`:CODE:NOROOT(2)
        SECTION_TYPE SHT_PROGBITS, 0
        DATA
??DataTable151_6:
        DATA32
        DC32     ?_132

        SECTION `.text`:CODE:NOROOT(2)
        SECTION_TYPE SHT_PROGBITS, 0
        DATA
??DataTable151_7:
        DATA32
        DC32     RX_msg

        SECTION `.text`:CODE:NOROOT(2)
        SECTION_TYPE SHT_PROGBITS, 0
        DATA
??DataTable151_8:
        DATA32
        DC32     ?_56

        SECTION `.text`:CODE:NOROOT(2)
        SECTION_TYPE SHT_PROGBITS, 0
        DATA
??DataTable151_9:
        DATA32
        DC32     0xffe0ffff

        SECTION `.text`:CODE:NOROOT(2)
        SECTION_TYPE SHT_PROGBITS, 0
        DATA
??DataTable151_10:
        DATA32
        DC32     ?_58
// 2974 
// 2975 /************************************************************************************
// 2976 * GpioTmrInit
// 2977 *
// 2978 * This function initializate the Timers gpios.
// 2979 *
// 2980 ***********************************************************************************/

        SECTION `.text`:CODE:NOROOT(1)
        THUMB
// 2981 void GpioTmrInit(void)
// 2982 {
GpioTmrInit:
        PUSH     {R7,LR}
// 2983   Gpio_SetPinFunction(gGpioPin8_c, gGpioAlternate1Mode_c);
        MOVS     R1,#+1
        MOVS     R0,#+8
        BL       Gpio_SetPinFunction
// 2984   Gpio_SetPinFunction(gGpioPin9_c, gGpioAlternate1Mode_c);
        MOVS     R1,#+1
        MOVS     R0,#+9
        BL       Gpio_SetPinFunction
// 2985   Gpio_SetPinFunction(gGpioPin10_c, gGpioAlternate1Mode_c);
        MOVS     R1,#+1
        MOVS     R0,#+10
        BL       Gpio_SetPinFunction
// 2986   Gpio_SetPinFunction(gGpioPin11_c, gGpioAlternate1Mode_c);
        MOVS     R1,#+1
        MOVS     R0,#+11
        BL       Gpio_SetPinFunction
// 2987 }
        POP      {R0,R3}
        BX       R3               ;; return
// 2988 
// 2989 /************************************************************************************
// 2990 * display_config function
// 2991 *
// 2992 * This function prints an ASCII Freescale's logo.
// 2993 ************************************************************************************/
// 2994 #if INTERFACE_TYPE == SERIAL
// 2995 static void print_freescale_logo(void)
// 2996 {
// 2997   Uart_Print("\n\r\n\r\n\r      #\n");
// 2998   Uart_Print("\r     ###\n");
// 2999   Uart_Print("\r    ###  *\n");
// 3000   Uart_Print("\r     #  ***\n");
// 3001   Uart_Print("\r       ***  #\n");
// 3002   Uart_Print("\r        *  ###\n");
// 3003   Uart_Print("\r          ###\n");
// 3004   Uart_Print("\r        *  #\n");
// 3005   Uart_Print("\r       ***\n");
// 3006   Uart_Print("\r      ***  #\n");
// 3007   Uart_Print("\r    #  *  ###\n");
// 3008   Uart_Print("\r   ###   ###\n");
// 3009   Uart_Print("\r  ###  *  #         F R E E S C A L E\n");
// 3010   Uart_Print("\r   #  ***\n");
// 3011   Uart_Print("\r     ***            S E M I C O N D U C T O R\n");
// 3012   Uart_Print("\r   #  *\n");
// 3013   Uart_Print("\r  ###               2 0 1 1\n");
// 3014   Uart_Print("\r ###\n");
// 3015   Uart_Print("\r  #           Press any key to continue...\n\n");
// 3016 }
// 3017 #endif
// 3018 
// 3019 /*******************************************************************************
// 3020 * DisplayFreescaleLogo
// 3021 *
// 3022 * This function displays the Freescale Logo in the LCD.
// 3023 *******************************************************************************/
// 3024 #if (gLCDSupported_d)

        SECTION `.text`:CODE:NOROOT(1)
        THUMB
// 3025 void DisplayFreescaleLogo(uint8_t xStartCoord, uint8_t yStartCoord)
// 3026 {
DisplayFreescaleLogo:
        PUSH     {R1-R7,LR}
// 3027   uint8_t u8Count;
// 3028   uint8_t u8String[9] = {'f','r','e','e','s','c','a','l','e'};
        MOV      R2,SP
        LDR      R3,??DataTable153
        LDM      R3!,{R4-R6}
        STM      R2!,{R4-R6}
// 3029   uint8_t i;
// 3030   
// 3031   for(i=0; i < 8; i++)
        MOVS     R6,#+0
        MOVS     R5,R0
        MOVS     R4,R1
// 3032   {  
// 3033     LCD_WritePixel(xStartCoord, yStartCoord, 1);
??DisplayFreescaleLogo_0:
        MOVS     R2,#+1
        LSLS     R1,R4,#+24
        LSRS     R1,R1,#+24
        LSLS     R0,R5,#+24
        LSRS     R0,R0,#+24
        BL       LCD_WritePixel
// 3034     LCD_WritePixel(xStartCoord, yStartCoord + 1, 1);
        ADDS     R7,R4,#+1
        MOVS     R2,#+1
        LSLS     R1,R7,#+24
        LSRS     R1,R1,#+24
        LSLS     R0,R5,#+24
        LSRS     R0,R0,#+24
        BL       LCD_WritePixel
// 3035     LCD_WritePixel(xStartCoord + 1, yStartCoord + 1, 1);
        MOVS     R2,#+1
        LSLS     R1,R7,#+24
        LSRS     R1,R1,#+24
        ADDS     R0,R5,#+1
        LSLS     R0,R0,#+24
        LSRS     R0,R0,#+24
        BL       LCD_WritePixel
// 3036     LCD_WritePixel(xStartCoord - 1, yStartCoord + 1, 1);
        MOVS     R2,#+1
        LSLS     R1,R7,#+24
        LSRS     R1,R1,#+24
        SUBS     R0,R5,#+1
        LSLS     R0,R0,#+24
        LSRS     R0,R0,#+24
        BL       LCD_WritePixel
// 3037     LCD_WritePixel(xStartCoord - 2, yStartCoord + 2, 1);
        ADDS     R7,R4,#+2
        MOVS     R2,#+1
        LSLS     R1,R7,#+24
        LSRS     R1,R1,#+24
        SUBS     R0,R5,#+2
        LSLS     R0,R0,#+24
        LSRS     R0,R0,#+24
        BL       LCD_WritePixel
// 3038     LCD_WritePixel(xStartCoord - 1, yStartCoord + 2, 1);
        MOVS     R2,#+1
        LSLS     R1,R7,#+24
        LSRS     R1,R1,#+24
        SUBS     R0,R5,#+1
        LSLS     R0,R0,#+24
        LSRS     R0,R0,#+24
        BL       LCD_WritePixel
// 3039     LCD_WritePixel(xStartCoord, yStartCoord + 2, 1);
        MOVS     R2,#+1
        LSLS     R1,R7,#+24
        LSRS     R1,R1,#+24
        LSLS     R0,R5,#+24
        LSRS     R0,R0,#+24
        BL       LCD_WritePixel
// 3040     LCD_WritePixel(xStartCoord + 1, yStartCoord + 2, 1);
        MOVS     R2,#+1
        LSLS     R1,R7,#+24
        LSRS     R1,R1,#+24
        ADDS     R0,R5,#+1
        LSLS     R0,R0,#+24
        LSRS     R0,R0,#+24
        BL       LCD_WritePixel
// 3041     LCD_WritePixel(xStartCoord + 2, yStartCoord + 2, 1);
        MOVS     R2,#+1
        LSLS     R1,R7,#+24
        LSRS     R1,R1,#+24
        ADDS     R0,R5,#+2
        LSLS     R0,R0,#+24
        LSRS     R0,R0,#+24
        BL       LCD_WritePixel
// 3042     LCD_WritePixel(xStartCoord - 3, yStartCoord + 3, 1);
        ADDS     R7,R4,#+3
        MOVS     R2,#+1
        LSLS     R1,R7,#+24
        LSRS     R1,R1,#+24
        SUBS     R0,R5,#+3
        LSLS     R0,R0,#+24
        LSRS     R0,R0,#+24
        BL       LCD_WritePixel
// 3043     LCD_WritePixel(xStartCoord - 2, yStartCoord + 3, 1);
        MOVS     R2,#+1
        LSLS     R1,R7,#+24
        LSRS     R1,R1,#+24
        SUBS     R0,R5,#+2
        LSLS     R0,R0,#+24
        LSRS     R0,R0,#+24
        BL       LCD_WritePixel
// 3044     LCD_WritePixel(xStartCoord - 1, yStartCoord + 3, 1);
        MOVS     R2,#+1
        LSLS     R1,R7,#+24
        LSRS     R1,R1,#+24
        SUBS     R0,R5,#+1
        LSLS     R0,R0,#+24
        LSRS     R0,R0,#+24
        BL       LCD_WritePixel
// 3045     LCD_WritePixel(xStartCoord , yStartCoord + 3, 1);  
        MOVS     R2,#+1
        LSLS     R1,R7,#+24
        LSRS     R1,R1,#+24
        LSLS     R0,R5,#+24
        LSRS     R0,R0,#+24
        BL       LCD_WritePixel
// 3046     LCD_WritePixel(xStartCoord  + 1, yStartCoord + 3, 1);  
        MOVS     R2,#+1
        LSLS     R1,R7,#+24
        LSRS     R1,R1,#+24
        ADDS     R0,R5,#+1
        LSLS     R0,R0,#+24
        LSRS     R0,R0,#+24
        BL       LCD_WritePixel
// 3047     LCD_WritePixel(xStartCoord - 4, yStartCoord + 4, 1);  
        MOVS     R2,#+1
        ADDS     R1,R4,#+4
        LSLS     R1,R1,#+24
        LSRS     R1,R1,#+24
        SUBS     R0,R5,#+4
        LSLS     R0,R0,#+24
        LSRS     R0,R0,#+24
        BL       LCD_WritePixel
// 3048     LCD_WritePixel(xStartCoord - 3, yStartCoord + 4, 1);  
        MOVS     R2,#+1
        ADDS     R1,R4,#+4
        LSLS     R1,R1,#+24
        LSRS     R1,R1,#+24
        SUBS     R0,R5,#+3
        LSLS     R0,R0,#+24
        LSRS     R0,R0,#+24
        BL       LCD_WritePixel
// 3049     LCD_WritePixel(xStartCoord - 2, yStartCoord + 4, 1);  
        MOVS     R2,#+1
        ADDS     R1,R4,#+4
        LSLS     R1,R1,#+24
        LSRS     R1,R1,#+24
        SUBS     R0,R5,#+2
        LSLS     R0,R0,#+24
        LSRS     R0,R0,#+24
        BL       LCD_WritePixel
// 3050     LCD_WritePixel(xStartCoord - 1, yStartCoord + 4, 1);  
        MOVS     R2,#+1
        ADDS     R1,R4,#+4
        LSLS     R1,R1,#+24
        LSRS     R1,R1,#+24
        SUBS     R0,R5,#+1
        LSLS     R0,R0,#+24
        LSRS     R0,R0,#+24
        BL       LCD_WritePixel
// 3051     LCD_WritePixel(xStartCoord, yStartCoord + 4, 1);  
        MOVS     R2,#+1
        ADDS     R1,R4,#+4
        LSLS     R1,R1,#+24
        LSRS     R1,R1,#+24
        LSLS     R0,R5,#+24
        LSRS     R0,R0,#+24
        BL       LCD_WritePixel
// 3052     LCD_WritePixel(xStartCoord - 3, yStartCoord + 5, 1);  
        MOVS     R2,#+1
        ADDS     R1,R4,#+5
        LSLS     R1,R1,#+24
        LSRS     R1,R1,#+24
        SUBS     R0,R5,#+3
        LSLS     R0,R0,#+24
        LSRS     R0,R0,#+24
        BL       LCD_WritePixel
// 3053     LCD_WritePixel(xStartCoord - 2, yStartCoord + 5, 1); 
        MOVS     R2,#+1
        ADDS     R1,R4,#+5
        LSLS     R1,R1,#+24
        LSRS     R1,R1,#+24
        SUBS     R0,R5,#+2
        LSLS     R0,R0,#+24
        LSRS     R0,R0,#+24
        BL       LCD_WritePixel
// 3054     LCD_WritePixel(xStartCoord - 1, yStartCoord + 5, 1);  
        MOVS     R2,#+1
        ADDS     R1,R4,#+5
        LSLS     R1,R1,#+24
        LSRS     R1,R1,#+24
        SUBS     R0,R5,#+1
        LSLS     R0,R0,#+24
        LSRS     R0,R0,#+24
        BL       LCD_WritePixel
// 3055     LCD_WritePixel(xStartCoord - 2, yStartCoord + 6, 1);  
        ADDS     R4,R4,#+6
        MOVS     R2,#+1
        LSLS     R1,R4,#+24
        LSRS     R1,R1,#+24
        SUBS     R0,R5,#+2
        LSLS     R0,R0,#+24
        LSRS     R0,R0,#+24
        BL       LCD_WritePixel
// 3056 
// 3057     
// 3058    if(i == 2 || i == 4 || i == 6)
        CMP      R6,#+2
        BEQ      ??DisplayFreescaleLogo_1
        CMP      R6,#+4
        BEQ      ??DisplayFreescaleLogo_2
        CMP      R6,#+6
        BNE      ??DisplayFreescaleLogo_3
// 3059    {
// 3060      if(i == 4)
// 3061      {
// 3062        yStartCoord += 3;
// 3063        xStartCoord -= 9;
// 3064      }
// 3065      else
// 3066      {
// 3067        yStartCoord += 6;
// 3068        xStartCoord -= 6;
??DisplayFreescaleLogo_1:
        SUBS     R5,R5,#+6
        B        ??DisplayFreescaleLogo_4
// 3069      }
??DisplayFreescaleLogo_2:
        MOVS     R4,R7
        SUBS     R5,R5,#+9
        B        ??DisplayFreescaleLogo_4
// 3070    }
// 3071    else
// 3072    {
// 3073     yStartCoord += 3;
??DisplayFreescaleLogo_3:
        MOVS     R4,R7
// 3074     xStartCoord += 4;
        ADDS     R5,R5,#+4
// 3075 
// 3076    }
// 3077   }
??DisplayFreescaleLogo_4:
        ADDS     R6,R6,#+1
        CMP      R6,#+8
        BGE      .+4
        B        ??DisplayFreescaleLogo_0
// 3078  (void)LCD_SetFont(gLCD_VerdanaFont_c);
        MOVS     R0,#+1
        BL       LCD_SetFont
// 3079   yStartCoord -= 20;
        SUBS     R4,R4,#+20
// 3080   xStartCoord += 15;
        ADDS     R5,R5,#+15
// 3081   
// 3082   for(u8Count = 0; u8Count < 9; u8Count++)
        MOVS     R6,R4
        MOVS     R4,#+0
// 3083   {
// 3084     LCD_WriteCharacter(u8String[u8Count],xStartCoord, yStartCoord);
??DisplayFreescaleLogo_5:
        LSLS     R2,R6,#+24
        LSRS     R2,R2,#+24
        LSLS     R1,R5,#+24
        LSRS     R1,R1,#+24
        MOV      R0,SP
        LSLS     R3,R4,#+24
        LSRS     R3,R3,#+24
        LDRB     R0,[R0, R3]
        BL       LCD_WriteCharacter
// 3085     xStartCoord += 6;
        ADDS     R5,R5,#+6
// 3086   }
        ADDS     R4,R4,#+1
        LSLS     R0,R4,#+24
        LSRS     R0,R0,#+24
        CMP      R0,#+8
        BLE      ??DisplayFreescaleLogo_5
// 3087 
// 3088  (void)LCD_SetFont(gLCD_NormalFont_c);
        MOVS     R0,#+0
        BL       LCD_SetFont
// 3089   yStartCoord -= 20;
// 3090   xStartCoord += 15;
// 3091 }
        POP      {R0-R2,R4-R7}
        POP      {R3}
        BX       R3               ;; return

        SECTION `.text`:CODE:NOROOT(2)
        SECTION_TYPE SHT_PROGBITS, 0
        DATA
??DataTable152:
        DATA8
        DC8      "\n",0x0,0x0

        SECTION `.text`:CODE:NOROOT(2)
        SECTION_TYPE SHT_PROGBITS, 0
        DATA
??DataTable152_1:
        DATA32
        DC32     0x80007020
// 3092 #endif
// 3093 
// 3094 
// 3095 #if (gLCDSupported_d)
// 3096   

        SECTION `.text`:CODE:NOROOT(2)
        THUMB
// 3097 void DisplayTestMode(ConfigOption_t u8ConfigOption)
// 3098 {
DisplayTestMode:
        PUSH     {R4-R6,LR}
        MOVS     R5,R0
// 3099   uint8_t line = 0;
// 3100   uint8_t i;
// 3101   ClearDisplay();
        BL       ClearDisplay
// 3102   LCD_WriteString_NormalFont(line,"   CONNECTIVITY TEST  ");
        LDR      R1,??DataTable154
        MOVS     R0,#+0
        BL       LCD_WriteString_NormalFont
// 3103 
// 3104   for(i = 0; i< 130 ; i++)
        MOVS     R4,#+0
// 3105   {
// 3106     LCD_WritePixel(i,10,1);  
??DisplayTestMode_0:
        MOVS     R2,#+1
        MOVS     R1,#+10
        LSLS     R0,R4,#+24
        LSRS     R0,R0,#+24
        BL       LCD_WritePixel
// 3107     LCD_WritePixel(i,11,1);  
        MOVS     R2,#+1
        MOVS     R1,#+11
        LSLS     R0,R4,#+24
        LSRS     R0,R0,#+24
        BL       LCD_WritePixel
// 3108   }
        ADDS     R4,R4,#+1
        LSLS     R0,R4,#+24
        LSRS     R0,R0,#+24
        CMP      R0,#+130
        BLT      ??DisplayTestMode_0
// 3109   line++;
// 3110   
// 3111 
// 3112   switch(u8ConfigOption)
        LDR      R6,??DataTable154_1
        LDR      R4,??DataTable154_2
        CMP      R5,#+0
        BEQ      ??DisplayTestMode_1
        CMP      R5,#+2
        BEQ      ??DisplayTestMode_2
        BCC      ??DisplayTestMode_3
        B        ??DisplayTestMode_4
// 3113   {
// 3114     case gChannel_c:
// 3115       line++;
// 3116       LCD_WriteString_NormalFont(line," Option: Channel");
??DisplayTestMode_1:
        LDR      R1,??DataTable154_3
        MOVS     R0,#+2
        BL       LCD_WriteString_NormalFont
// 3117       line++;
// 3118       LCD_WriteString_NormalFont(line,"  SW1 Change option");
        MOVS     R1,R6
        MOVS     R0,#+3
        BL       LCD_WriteString_NormalFont
// 3119       line++;
// 3120       LCD_WriteString_NormalFont(line,"  SW2 Channel Up");
        LDR      R1,??DataTable154_4
        MOVS     R0,#+4
        BL       LCD_WriteString_NormalFont
// 3121       line++;
// 3122       LCD_WriteString_NormalFont(line,"  SW3 Channel Down");
        LDR      R1,??DataTable154_5
        MOVS     R0,#+5
        BL       LCD_WriteString_NormalFont
// 3123       LCD_WriteStringValue("CHANNEL:",(u8TestModeChannel + 11),7,gLCD_DecFormat_c);
        MOVS     R3,#+1
        MOVS     R2,#+7
        LDRB     R1,[R4, #+17]
        ADDS     R1,R1,#+11
        LSLS     R1,R1,#+16
        LSRS     R1,R1,#+16
        LDR      R0,??DataTable154_6
        B.N      ??DisplayTestMode_5
// 3124     break;
// 3125     
// 3126     case gPower_c:
// 3127       line++;
// 3128       LCD_WriteString_NormalFont(line," Option: Power");
??DisplayTestMode_3:
        LDR      R1,??DataTable154_7
        MOVS     R0,#+2
        BL       LCD_WriteString_NormalFont
// 3129       line++;
// 3130       LCD_WriteString_NormalFont(line,"  SW1 Change option");
        MOVS     R1,R6
        MOVS     R0,#+3
        BL       LCD_WriteString_NormalFont
// 3131       line++;
// 3132       LCD_WriteString_NormalFont(line,"  SW2 Power Up");
        LDR      R1,??DataTable154_8
        MOVS     R0,#+4
        BL       LCD_WriteString_NormalFont
// 3133       line++;
// 3134       LCD_WriteString_NormalFont(line,"  SW3 Power Down");
        LDR      R1,??DataTable154_9
        MOVS     R0,#+5
        BL       LCD_WriteString_NormalFont
// 3135       LCD_WriteStringValue("POWER LEVEL:",(u8TestModePower),7,gLCD_DecFormat_c);
        MOVS     R3,#+1
        MOVS     R2,#+7
        LDRB     R1,[R4, #+18]
        LDR      R0,??DataTable154_10
??DisplayTestMode_5:
        BL       LCD_WriteStringValue
// 3136     break;
        B        ??DisplayTestMode_4
// 3137     
// 3138     case gRxTestMode_c:
// 3139       line++;
// 3140       
// 3141       if(SMAC_TEST_MODE_IDLE == u8CurrentMode)
??DisplayTestMode_2:
        LDRB     R0,[R4, #+16]
        CMP      R0,#+0
        BNE      ??DisplayTestMode_6
// 3142       {
// 3143         LCD_WriteString_NormalFont(line," Option: Test");
        LDR      R1,??DataTable154_11
        MOVS     R0,#+2
        BL       LCD_WriteString_NormalFont
// 3144         line++;
// 3145         LCD_WriteString_NormalFont(line,"  SW1 Change option");
        MOVS     R1,R6
        MOVS     R0,#+3
        BL       LCD_WriteString_NormalFont
// 3146         line++;
// 3147         LCD_WriteString_NormalFont(line,"  SW2 Test Up");
        LDR      R1,??DataTable154_12
        MOVS     R0,#+4
        BL       LCD_WriteString_NormalFont
// 3148         line++;
// 3149         LCD_WriteString_NormalFont(line,"  SW3 Test Down");
        LDR      R1,??DataTable154_13
        MOVS     R0,#+5
        BL       LCD_WriteString_NormalFont
// 3150         line++;
        MOVS     R5,#+6
// 3151         LCD_WriteString_NormalFont(7,"Idle Mode");
        LDR      R1,??DataTable154_14
        MOVS     R0,#+7
        BL       LCD_WriteString_NormalFont
// 3152       }
// 3153     /* RX options */  
// 3154       /*
// 3155       if(SMAC_CONTINUOUS_RX == u8CurrentMode)
// 3156       {
// 3157         LCD_WriteString_NormalFont(line," Continuous Reception");
// 3158       } 
// 3159       */
// 3160       if(SMAC_TEST_MODE_PER_RX == u8CurrentMode)
??DisplayTestMode_6:
        LDRB     R0,[R4, #+16]
        CMP      R0,#+2
        BNE      ??DisplayTestMode_7
// 3161       {
// 3162         LCD_WriteString_NormalFont(line,"PER Test running");
        LDR      R1,??DataTable154_15
        MOVS     R0,R5
        BL       LCD_WriteString_NormalFont
// 3163         line = line + 2 ;
        ADDS     R5,R5,#+2
// 3164         LCD_WriteString_NormalFont(line,"SW4 for PER TX");
        LDR      R1,??DataTable154_16
        LSLS     R0,R5,#+24
        LSRS     R0,R0,#+24
        BL       LCD_WriteString_NormalFont
// 3165       }  
// 3166 
// 3167       if(SMAC_TEST_MODE_RANGE_RX == u8CurrentMode)
??DisplayTestMode_7:
        LDRB     R0,[R4, #+16]
        CMP      R0,#+3
        BNE      ??DisplayTestMode_8
// 3168       {
// 3169         LCD_WriteString_NormalFont(line,"Range Test running");
        LDR      R1,??DataTable154_17
        LSLS     R0,R5,#+24
        LSRS     R0,R0,#+24
        BL       LCD_WriteString_NormalFont
// 3170         line = line + 2 ;
        ADDS     R5,R5,#+2
// 3171         LCD_WriteString_NormalFont(line,"SW4 for Range TX");
        LDR      R1,??DataTable154_18
        LSLS     R0,R5,#+24
        LSRS     R0,R0,#+24
        BL       LCD_WriteString_NormalFont
// 3172       }  
// 3173       
// 3174     /* TX options */  
// 3175       if(SMAC_TEST_MODE_PULSE_PRBS9_TX == u8CurrentMode)
??DisplayTestMode_8:
        LDRB     R0,[R4, #+16]
        CMP      R0,#+1
        BNE      ??DisplayTestMode_9
// 3176       {
// 3177         LCD_WriteString_NormalFont(line," PRBS9 Cont. TX ");
        Nop      
        ADR.N    R1,?_174
        LSLS     R0,R5,#+24
        LSRS     R0,R0,#+24
        BL       LCD_WriteString_NormalFont
// 3178       }            
// 3179       if(SMAC_TEST_MODE_CONTINUOUS_TX_MOD == u8CurrentMode)
??DisplayTestMode_9:
        LDRB     R0,[R4, #+16]
        CMP      R0,#+4
        BNE      ??DisplayTestMode_10
// 3180       {
// 3181         LCD_WriteString_NormalFont(line," Cont TX Mod ");
        ADR.N    R1,?_175
        LSLS     R0,R5,#+24
        LSRS     R0,R0,#+24
        BL       LCD_WriteString_NormalFont
// 3182       }              
// 3183       if(SMAC_TEST_MODE_CONTINUOUS_TX_NOMOD == u8CurrentMode)
??DisplayTestMode_10:
        LDRB     R0,[R4, #+16]
        CMP      R0,#+5
        BNE      ??DisplayTestMode_4
// 3184       {
// 3185         LCD_WriteString_NormalFont(line," Cont TX No Mod ");
        ADR.N    R1,?_176
        LSLS     R0,R5,#+24
        LSRS     R0,R0,#+24
        BL       LCD_WriteString_NormalFont
// 3186       }        
// 3187       
// 3188     break;
// 3189   
// 3190     default:
// 3191     break;
// 3192   }
// 3193 }
??DisplayTestMode_4:
        POP      {R4-R6}
        POP      {R3}
        BX       R3               ;; return

        SECTION `.text`:CODE:NOROOT(2)
        SECTION_TYPE SHT_PROGBITS, 0
        DATA
??DataTable153:
        DATA32
        DC32     ?_155

        SECTION `.text`:CODE:NOROOT(2)
        SECTION_TYPE SHT_PROGBITS, 0
        DATA
?_174:
        DC8 " PRBS9 Cont. TX "
        DC8 0, 0, 0

        SECTION `.text`:CODE:NOROOT(2)
        SECTION_TYPE SHT_PROGBITS, 0
        DATA
?_175:
        DC8 " Cont TX Mod "
        DATA16
        DC8 0, 0

        SECTION `.text`:CODE:NOROOT(2)
        SECTION_TYPE SHT_PROGBITS, 0
        DATA
?_176:
        DC8 " Cont TX No Mod "
        DC8 0, 0, 0
// 3194 

        SECTION `.text`:CODE:NOROOT(1)
        THUMB
// 3195 void ClearDisplay(void)
// 3196 {
ClearDisplay:
        PUSH     {R3-R5,LR}
// 3197   uint8_t u8Line;
// 3198   for(u8Line = 0; u8Line < 9; u8Line++)
        MOVS     R5,#+0
        LDR      R4,??DataTable154_19
// 3199   {
// 3200     LCD_WriteString_NormalFont(u8Line,"                     ");
??ClearDisplay_0:
        MOVS     R1,R4
        LSLS     R0,R5,#+24
        LSRS     R0,R0,#+24
        BL       LCD_WriteString_NormalFont
// 3201   }
        ADDS     R5,R5,#+1
        LSLS     R0,R5,#+24
        LSRS     R0,R0,#+24
        CMP      R0,#+9
        BLT      ??ClearDisplay_0
// 3202 }
        POP      {R0,R4,R5}
        POP      {R3}
        BX       R3               ;; return

        SECTION `.text`:CODE:NOROOT(2)
        SECTION_TYPE SHT_PROGBITS, 0
        DATA
??DataTable154:
        DATA32
        DC32     ?_156

        SECTION `.text`:CODE:NOROOT(2)
        SECTION_TYPE SHT_PROGBITS, 0
        DATA
??DataTable154_1:
        DATA32
        DC32     ?_158

        SECTION `.text`:CODE:NOROOT(2)
        SECTION_TYPE SHT_PROGBITS, 0
        DATA
??DataTable154_2:
        DATA32
        DC32     RX_msg

        SECTION `.text`:CODE:NOROOT(2)
        SECTION_TYPE SHT_PROGBITS, 0
        DATA
??DataTable154_3:
        DATA32
        DC32     ?_157

        SECTION `.text`:CODE:NOROOT(2)
        SECTION_TYPE SHT_PROGBITS, 0
        DATA
??DataTable154_4:
        DATA32
        DC32     ?_159

        SECTION `.text`:CODE:NOROOT(2)
        SECTION_TYPE SHT_PROGBITS, 0
        DATA
??DataTable154_5:
        DATA32
        DC32     ?_160

        SECTION `.text`:CODE:NOROOT(2)
        SECTION_TYPE SHT_PROGBITS, 0
        DATA
??DataTable154_6:
        DATA32
        DC32     ?_161

        SECTION `.text`:CODE:NOROOT(2)
        SECTION_TYPE SHT_PROGBITS, 0
        DATA
??DataTable154_7:
        DATA32
        DC32     ?_162

        SECTION `.text`:CODE:NOROOT(2)
        SECTION_TYPE SHT_PROGBITS, 0
        DATA
??DataTable154_8:
        DATA32
        DC32     ?_163

        SECTION `.text`:CODE:NOROOT(2)
        SECTION_TYPE SHT_PROGBITS, 0
        DATA
??DataTable154_9:
        DATA32
        DC32     ?_164

        SECTION `.text`:CODE:NOROOT(2)
        SECTION_TYPE SHT_PROGBITS, 0
        DATA
??DataTable154_10:
        DATA32
        DC32     ?_165

        SECTION `.text`:CODE:NOROOT(2)
        SECTION_TYPE SHT_PROGBITS, 0
        DATA
??DataTable154_11:
        DATA32
        DC32     ?_166

        SECTION `.text`:CODE:NOROOT(2)
        SECTION_TYPE SHT_PROGBITS, 0
        DATA
??DataTable154_12:
        DATA32
        DC32     ?_167

        SECTION `.text`:CODE:NOROOT(2)
        SECTION_TYPE SHT_PROGBITS, 0
        DATA
??DataTable154_13:
        DATA32
        DC32     ?_168

        SECTION `.text`:CODE:NOROOT(2)
        SECTION_TYPE SHT_PROGBITS, 0
        DATA
??DataTable154_14:
        DATA32
        DC32     ?_169

        SECTION `.text`:CODE:NOROOT(2)
        SECTION_TYPE SHT_PROGBITS, 0
        DATA
??DataTable154_15:
        DATA32
        DC32     ?_170

        SECTION `.text`:CODE:NOROOT(2)
        SECTION_TYPE SHT_PROGBITS, 0
        DATA
??DataTable154_16:
        DATA32
        DC32     ?_171

        SECTION `.text`:CODE:NOROOT(2)
        SECTION_TYPE SHT_PROGBITS, 0
        DATA
??DataTable154_17:
        DATA32
        DC32     ?_172

        SECTION `.text`:CODE:NOROOT(2)
        SECTION_TYPE SHT_PROGBITS, 0
        DATA
??DataTable154_18:
        DATA32
        DC32     ?_173

        SECTION `.text`:CODE:NOROOT(2)
        SECTION_TYPE SHT_PROGBITS, 0
        DATA
??DataTable154_19:
        DATA32
        DC32     ?_177

        SECTION `.iar_vfe_header`:DATA:NOALLOC:NOROOT(2)
        SECTION_TYPE SHT_PROGBITS, 0
        DATA
        DC32 0

        END
// 3203 
// 3204 #endif
// 3205 
// 3206 /************************************************************************************
// 3207 *************************************************************************************
// 3208 * Private Debug stuff
// 3209 *************************************************************************************
// 3210 ************************************************************************************/
// 3211 
// 3212 
// 
//    54 bytes in section .bss
//   497 bytes in section .data
// 4 518 bytes in section .rodata
// 7 326 bytes in section .text
// 
// 7 326 bytes of CODE  memory
// 4 518 bytes of CONST memory
//   551 bytes of DATA  memory
//
//Errors: none
//Warnings: none
